(dp1
S'output'
p2
S"<type 'exceptions.AttributeError'> 'builtin_function_or_method' object has no attribute 'type'"
p3
sS'layer'
p4
S'/home/rogoberto/web2py/applications/localfs/controllers/contrato.py'
p5
sS'code'
p6
S'<code object <module> at 0x7f7cc6777630, file "/home/rogoberto/web2py/applications/localfs/controllers/contrato.py", line 2>'
p7
sS'snapshot'
p8
(dp9
S'exception'
p10
(dp11
S'__getslice__'
p12
S"<method-wrapper '__getslice__' of exceptions.AttributeError object>"
p13
sS'__str__'
p14
S"<method-wrapper '__str__' of exceptions.AttributeError object>"
p15
sS'__reduce__'
p16
S'<built-in method __reduce__ of exceptions.AttributeError object>'
p17
sS'__dict__'
p18
S'{}'
p19
sS'message'
p20
S'"\'builtin_function_or_method\' object has no attribute \'type\'"'
p21
sS'__sizeof__'
p22
S'<built-in method __sizeof__ of exceptions.AttributeError object>'
p23
sS'__init__'
p24
S"<method-wrapper '__init__' of exceptions.AttributeError object>"
p25
sS'__setattr__'
p26
S"<method-wrapper '__setattr__' of exceptions.AttributeError object>"
p27
sS'__reduce_ex__'
p28
S'<built-in method __reduce_ex__ of exceptions.AttributeError object>'
p29
sS'__new__'
p30
S'<built-in method __new__ of type object>'
p31
sS'__format__'
p32
S'<built-in method __format__ of exceptions.AttributeError object>'
p33
sS'__class__'
p34
S"<type 'exceptions.AttributeError'>"
p35
sS'__doc__'
p36
S"'Attribute not found.'"
p37
sS'__getitem__'
p38
S"<method-wrapper '__getitem__' of exceptions.AttributeError object>"
p39
sS'__setstate__'
p40
S'<built-in method __setstate__ of exceptions.AttributeError object>'
p41
sS'__getattribute__'
p42
S"<method-wrapper '__getattribute__' of exceptions.AttributeError object>"
p43
sS'args'
p44
S'("\'builtin_function_or_method\' object has no attribute \'type\'",)'
p45
sS'__subclasshook__'
p46
S'<built-in method __subclasshook__ of type object>'
p47
sS'__unicode__'
p48
S'<built-in method __unicode__ of exceptions.AttributeError object>'
p49
sS'__delattr__'
p50
S"<method-wrapper '__delattr__' of exceptions.AttributeError object>"
p51
sS'__repr__'
p52
S"<method-wrapper '__repr__' of exceptions.AttributeError object>"
p53
sS'__hash__'
p54
S"<method-wrapper '__hash__' of exceptions.AttributeError object>"
p55
ssS'evalue'
p56
S"'builtin_function_or_method' object has no attribute 'type'"
p57
sS'request'
p58
cgluon.html
XML_unpickle
p59
(S's\xa4`\x00\x00<div><table><tr><td style="font-weight:bold;vertical-align:top;">ajax</td><td style="vertical-align:top;">:</td><td><div>False</div></td></tr><tr><td style="font-weight:bold;vertical-align:top;">application</td><td style="vertical-align:top;">:</td><td><div>localfs</div></td></tr><tr><td style="font-weight:bold;vertical-align:top;">args</td><td style="vertical-align:top;">:</td><td><div><table><tr><td><div>30</div></td></tr></table></div></td></tr><tr><td style="font-weight:bold;vertical-align:top;">cid</td><td style="vertical-align:top;">:</td><td><div>None</div></td></tr><tr><td style="font-weight:bold;vertical-align:top;">client</td><td style="vertical-align:top;">:</td><td><div>177.37.231.221</div></td></tr><tr><td style="font-weight:bold;vertical-align:top;">controller</td><td style="vertical-align:top;">:</td><td><div>contrato</div></td></tr><tr><td style="font-weight:bold;vertical-align:top;">cookies</td><td style="vertical-align:top;">:</td><td><div><table><tr><td style="font-weight:bold;vertical-align:top;">session_id_admin</td><td style="vertical-align:top;">:</td><td><div>177.37.231.221-74a8e585-d780-4a3b-b931-d853da0fbb77<table><tr><td style="font-weight:bold;vertical-align:top;">comment</td><td style="vertical-align:top;">:</td><td><div></div></td></tr><tr><td style="font-weight:bold;vertical-align:top;">domain</td><td style="vertical-align:top;">:</td><td><div></div></td></tr><tr><td style="font-weight:bold;vertical-align:top;">expires</td><td style="vertical-align:top;">:</td><td><div></div></td></tr><tr><td style="font-weight:bold;vertical-align:top;">httponly</td><td style="vertical-align:top;">:</td><td><div></div></td></tr><tr><td style="font-weight:bold;vertical-align:top;">max-age</td><td style="vertical-align:top;">:</td><td><div></div></td></tr><tr><td style="font-weight:bold;vertical-align:top;">path</td><td style="vertical-align:top;">:</td><td><div></div></td></tr><tr><td style="font-weight:bold;vertical-align:top;">secure</td><td style="vertical-align:top;">:</td><td><div></div></td></tr><tr><td style="font-weight:bold;vertical-align:top;">version</td><td style="vertical-align:top;">:</td><td><div></div></td></tr></table></div></td></tr><tr><td style="font-weight:bold;vertical-align:top;">session_id_aluminum</td><td style="vertical-align:top;">:</td><td><div>177.37.231.221-3610f216-3b39-4a34-9675-bedfad027efe<table><tr><td style="font-weight:bold;vertical-align:top;">comment</td><td style="vertical-align:top;">:</td><td><div></div></td></tr><tr><td style="font-weight:bold;vertical-align:top;">domain</td><td style="vertical-align:top;">:</td><td><div></div></td></tr><tr><td style="font-weight:bold;vertical-align:top;">expires</td><td style="vertical-align:top;">:</td><td><div></div></td></tr><tr><td style="font-weight:bold;vertical-align:top;">httponly</td><td style="vertical-align:top;">:</td><td><div></div></td></tr><tr><td style="font-weight:bold;vertical-align:top;">max-age</td><td style="vertical-align:top;">:</td><td><div></div></td></tr><tr><td style="font-weight:bold;vertical-align:top;">path</td><td style="vertical-align:top;">:</td><td><div></div></td></tr><tr><td style="font-weight:bold;vertical-align:top;">secure</td><td style="vertical-align:top;">:</td><td><div></div></td></tr><tr><td style="font-weight:bold;vertical-align:top;">version</td><td style="vertical-align:top;">:</td><td><div></div></td></tr></table></div></td></tr><tr><td style="font-weight:bold;vertical-align:top;">session_id_localfs</td><td style="vertical-align:top;">:</td><td><div>177.37.231.221-6c320a87-a79a-47cb-9016-bc4024c61f8a<table><tr><td style="font-weight:bold;vertical-align:top;">comment</td><td style="vertical-align:top;">:</td><td><div></div></td></tr><tr><td style="font-weight:bold;vertical-align:top;">domain</td><td style="vertical-align:top;">:</td><td><div></div></td></tr><tr><td style="font-weight:bold;vertical-align:top;">expires</td><td style="vertical-align:top;">:</td><td><div></div></td></tr><tr><td style="font-weight:bold;vertical-align:top;">httponly</td><td style="vertical-align:top;">:</td><td><div></div></td></tr><tr><td style="font-weight:bold;vertical-align:top;">max-age</td><td style="vertical-align:top;">:</td><td><div></div></td></tr><tr><td style="font-weight:bold;vertical-align:top;">path</td><td style="vertical-align:top;">:</td><td><div></div></td></tr><tr><td style="font-weight:bold;vertical-align:top;">secure</td><td style="vertical-align:top;">:</td><td><div></div></td></tr><tr><td style="font-weight:bold;vertical-align:top;">version</td><td style="vertical-align:top;">:</td><td><div></div></td></tr></table></div></td></tr></table></div></td></tr><tr><td style="font-weight:bold;vertical-align:top;">env</td><td style="vertical-align:top;">:</td><td><div><table><tr><td style="font-weight:bold;vertical-align:top;">CONTENT_LENGTH</td><td style="vertical-align:top;">:</td><td><div></div></td></tr><tr><td style="font-weight:bold;vertical-align:top;">CONTENT_TYPE</td><td style="vertical-align:top;">:</td><td><div></div></td></tr><tr><td style="font-weight:bold;vertical-align:top;">DOCUMENT_ROOT</td><td style="vertical-align:top;">:</td><td><div>/usr/local/openresty/nginx/html</div></td></tr><tr><td style="font-weight:bold;vertical-align:top;">HTTPS</td><td style="vertical-align:top;">:</td><td><div>on</div></td></tr><tr><td style="font-weight:bold;vertical-align:top;">HTTP_ACCEPT</td><td style="vertical-align:top;">:</td><td><div>text/html,application/xhtml+xml,application/xml;q=0.9,image/webp,image/apng,*/*;q=0.8,application/signed-exchange;v=b3;q=0.9</div></td></tr><tr><td style="font-weight:bold;vertical-align:top;">HTTP_ACCEPT_ENCODING</td><td style="vertical-align:top;">:</td><td><div>gzip, deflate, br</div></td></tr><tr><td style="font-weight:bold;vertical-align:top;">HTTP_ACCEPT_LANGUAGE</td><td style="vertical-align:top;">:</td><td><div>pt-BR,pt;q=0.9,en-US;q=0.8,en;q=0.7</div></td></tr><tr><td style="font-weight:bold;vertical-align:top;">HTTP_CACHE_CONTROL</td><td style="vertical-align:top;">:</td><td><div>max-age=0</div></td></tr><tr><td style="font-weight:bold;vertical-align:top;">HTTP_CONNECTION</td><td style="vertical-align:top;">:</td><td><div>close</div></td></tr><tr><td style="font-weight:bold;vertical-align:top;">HTTP_COOKIE</td><td style="vertical-align:top;">:</td><td><div>_ga=GA1.2.786035724.1591068301; session_id_admin=177.37.231.221-74a8e585-d780-4a3b-b931-d853da0fbb77; session_id_localfs=177.37.231.221-6c320a87-a79a-47cb-9016-bc4024c61f8a; _gid=GA1.2.395308210.1593988158; session_id_aluminum=177.37.231.221-3610f216-3b39-4a34-9675-bedfad027efe</div></td></tr><tr><td style="font-weight:bold;vertical-align:top;">HTTP_HOST</td><td style="vertical-align:top;">:</td><td><div>rogoberto.pythonanywhere.com</div></td></tr><tr><td style="font-weight:bold;vertical-align:top;">HTTP_REFERER</td><td style="vertical-align:top;">:</td><td><div>https://rogoberto.pythonanywhere.com/localfs/contrato/todos_contratos</div></td></tr><tr><td style="font-weight:bold;vertical-align:top;">HTTP_SEC_FETCH_DEST</td><td style="vertical-align:top;">:</td><td><div>document</div></td></tr><tr><td style="font-weight:bold;vertical-align:top;">HTTP_SEC_FETCH_MODE</td><td style="vertical-align:top;">:</td><td><div>navigate</div></td></tr><tr><td style="font-weight:bold;vertical-align:top;">HTTP_SEC_FETCH_SITE</td><td style="vertical-align:top;">:</td><td><div>same-origin</div></td></tr><tr><td style="font-weight:bold;vertical-align:top;">HTTP_SEC_FETCH_USER</td><td style="vertical-align:top;">:</td><td><div>?1</div></td></tr><tr><td style="font-weight:bold;vertical-align:top;">HTTP_UPGRADE_INSECURE_REQUESTS</td><td style="vertical-align:top;">:</td><td><div>1</div></td></tr><tr><td style="font-weight:bold;vertical-align:top;">HTTP_USER_AGENT</td><td style="vertical-align:top;">:</td><td><div>Mozilla/5.0 (Windows NT 6.1; Win64; x64) AppleWebKit/537.36 (KHTML, like Gecko) Chrome/83.0.4103.116 Safari/537.36</div></td></tr><tr><td style="font-weight:bold;vertical-align:top;">HTTP_X_FORWARDED_FOR</td><td style="vertical-align:top;">:</td><td><div>177.37.231.221</div></td></tr><tr><td style="font-weight:bold;vertical-align:top;">HTTP_X_REAL_IP</td><td style="vertical-align:top;">:</td><td><div>177.37.231.221</div></td></tr><tr><td style="font-weight:bold;vertical-align:top;">PATH_INFO</td><td style="vertical-align:top;">:</td><td><div>/localfs/contrato/alterar_contrato/30</div></td></tr><tr><td style="font-weight:bold;vertical-align:top;">QUERY_STRING</td><td style="vertical-align:top;">:</td><td><div></div></td></tr><tr><td style="font-weight:bold;vertical-align:top;">REMOTE_ADDR</td><td style="vertical-align:top;">:</td><td><div>10.0.0.52</div></td></tr><tr><td style="font-weight:bold;vertical-align:top;">REMOTE_PORT</td><td style="vertical-align:top;">:</td><td><div>42774</div></td></tr><tr><td style="font-weight:bold;vertical-align:top;">REQUEST_METHOD</td><td style="vertical-align:top;">:</td><td><div>GET</div></td></tr><tr><td style="font-weight:bold;vertical-align:top;">REQUEST_URI</td><td style="vertical-align:top;">:</td><td><div>/localfs/contrato/alterar_contrato/30</div></td></tr><tr><td style="font-weight:bold;vertical-align:top;">SCRIPT_NAME</td><td style="vertical-align:top;">:</td><td><div></div></td></tr><tr><td style="font-weight:bold;vertical-align:top;">SERVER_NAME</td><td style="vertical-align:top;">:</td><td><div>rogoberto.pythonanywhere.com</div></td></tr><tr><td style="font-weight:bold;vertical-align:top;">SERVER_PORT</td><td style="vertical-align:top;">:</td><td><div>443</div></td></tr><tr><td style="font-weight:bold;vertical-align:top;">SERVER_PROTOCOL</td><td style="vertical-align:top;">:</td><td><div>HTTP/1.1</div></td></tr><tr><td style="font-weight:bold;vertical-align:top;">app_folders</td><td style="vertical-align:top;">:</td><td><div>set([&#x27;/home/rogoberto/web2py/applications/welcome/&#x27;, &#x27;/home/rogoberto/web2py/applications/admin/&#x27;, &#x27;/home/rogoberto/web2py/applications/localfs/&#x27;, &#x27;/home/rogoberto/web2py/applications/aluminum/&#x27;])</div></td></tr><tr><td style="font-weight:bold;vertical-align:top;">applications_parent</td><td style="vertical-align:top;">:</td><td><div>/home/rogoberto/web2py</div></td></tr><tr><td style="font-weight:bold;vertical-align:top;">content_length</td><td style="vertical-align:top;">:</td><td><div></div></td></tr><tr><td style="font-weight:bold;vertical-align:top;">content_type</td><td style="vertical-align:top;">:</td><td><div></div></td></tr><tr><td style="font-weight:bold;vertical-align:top;">db_sessions</td><td style="vertical-align:top;">:</td><td><div>set([])</div></td></tr><tr><td style="font-weight:bold;vertical-align:top;">debugging</td><td style="vertical-align:top;">:</td><td><div>True</div></td></tr><tr><td style="font-weight:bold;vertical-align:top;">document_root</td><td style="vertical-align:top;">:</td><td><div>/usr/local/openresty/nginx/html</div></td></tr><tr><td style="font-weight:bold;vertical-align:top;">gluon_parent</td><td style="vertical-align:top;">:</td><td><div>/home/rogoberto/web2py</div></td></tr><tr><td style="font-weight:bold;vertical-align:top;">http_accept</td><td style="vertical-align:top;">:</td><td><div>text/html,application/xhtml+xml,application/xml;q=0.9,image/webp,image/apng,*/*;q=0.8,application/signed-exchange;v=b3;q=0.9</div></td></tr><tr><td style="font-weight:bold;vertical-align:top;">http_accept_encoding</td><td style="vertical-align:top;">:</td><td><div>gzip, deflate, br</div></td></tr><tr><td style="font-weight:bold;vertical-align:top;">http_accept_language</td><td style="vertical-align:top;">:</td><td><div>pt-BR,pt;q=0.9,en-US;q=0.8,en;q=0.7</div></td></tr><tr><td style="font-weight:bold;vertical-align:top;">http_cache_control</td><td style="vertical-align:top;">:</td><td><div>max-age=0</div></td></tr><tr><td style="font-weight:bold;vertical-align:top;">http_connection</td><td style="vertical-align:top;">:</td><td><div>close</div></td></tr><tr><td style="font-weight:bold;vertical-align:top;">http_cookie</td><td style="vertical-align:top;">:</td><td><div>_ga=GA1.2.786035724.1591068301; session_id_admin=177.37.231.221-74a8e585-d780-4a3b-b931-d853da0fbb77; session_id_localfs=177.37.231.221-6c320a87-a79a-47cb-9016-bc4024c61f8a; _gid=GA1.2.395308210.1593988158; session_id_aluminum=177.37.231.221-3610f216-3b39-4a34-9675-bedfad027efe</div></td></tr><tr><td style="font-weight:bold;vertical-align:top;">http_host</td><td style="vertical-align:top;">:</td><td><div>rogoberto.pythonanywhere.com</div></td></tr><tr><td style="font-weight:bold;vertical-align:top;">http_referer</td><td style="vertical-align:top;">:</td><td><div>https://rogoberto.pythonanywhere.com/localfs/contrato/todos_contratos</div></td></tr><tr><td style="font-weight:bold;vertical-align:top;">http_sec_fetch_dest</td><td style="vertical-align:top;">:</td><td><div>document</div></td></tr><tr><td style="font-weight:bold;vertical-align:top;">http_sec_fetch_mode</td><td style="vertical-align:top;">:</td><td><div>navigate</div></td></tr><tr><td style="font-weight:bold;vertical-align:top;">http_sec_fetch_site</td><td style="vertical-align:top;">:</td><td><div>same-origin</div></td></tr><tr><td style="font-weight:bold;vertical-align:top;">http_sec_fetch_user</td><td style="vertical-align:top;">:</td><td><div>?1</div></td></tr><tr><td style="font-weight:bold;vertical-align:top;">http_upgrade_insecure_requests</td><td style="vertical-align:top;">:</td><td><div>1</div></td></tr><tr><td style="font-weight:bold;vertical-align:top;">http_user_agent</td><td style="vertical-align:top;">:</td><td><div>Mozilla/5.0 (Windows NT 6.1; Win64; x64) AppleWebKit/537.36 (KHTML, like Gecko) Chrome/83.0.4103.116 Safari/537.36</div></td></tr><tr><td style="font-weight:bold;vertical-align:top;">http_x_forwarded_for</td><td style="vertical-align:top;">:</td><td><div>177.37.231.221</div></td></tr><tr><td style="font-weight:bold;vertical-align:top;">http_x_real_ip</td><td style="vertical-align:top;">:</td><td><div>177.37.231.221</div></td></tr><tr><td style="font-weight:bold;vertical-align:top;">https</td><td style="vertical-align:top;">:</td><td><div>on</div></td></tr><tr><td style="font-weight:bold;vertical-align:top;">is_jython</td><td style="vertical-align:top;">:</td><td><div>False</div></td></tr><tr><td style="font-weight:bold;vertical-align:top;">is_py2</td><td style="vertical-align:top;">:</td><td><div>True</div></td></tr><tr><td style="font-weight:bold;vertical-align:top;">is_pypy</td><td style="vertical-align:top;">:</td><td><div>False</div></td></tr><tr><td style="font-weight:bold;vertical-align:top;">is_source</td><td style="vertical-align:top;">:</td><td><div>True</div></td></tr><tr><td style="font-weight:bold;vertical-align:top;">local_hosts</td><td style="vertical-align:top;">:</td><td><div><table><tr><td><div>35.173.69.207</div></td></tr><tr><td><div>::ffff:127.0.0.1</div></td></tr><tr><td><div>::1</div></td></tr><tr><td><div>rogoberto.pythonanywhere.com</div></td></tr><tr><td><div>127.0.0.1</div></td></tr><tr><td><div>green-liveweb14</div></td></tr><tr><td><div>localhost</div></td></tr></table></div></td></tr><tr><td style="font-weight:bold;vertical-align:top;">path_info</td><td style="vertical-align:top;">:</td><td><div>/localfs/contrato/alterar_contrato/30</div></td></tr><tr><td style="font-weight:bold;vertical-align:top;">query_string</td><td style="vertical-align:top;">:</td><td><div></div></td></tr><tr><td style="font-weight:bold;vertical-align:top;">remote_addr</td><td style="vertical-align:top;">:</td><td><div>10.0.0.52</div></td></tr><tr><td style="font-weight:bold;vertical-align:top;">remote_port</td><td style="vertical-align:top;">:</td><td><div>42774</div></td></tr><tr><td style="font-weight:bold;vertical-align:top;">request_method</td><td style="vertical-align:top;">:</td><td><div>GET</div></td></tr><tr><td style="font-weight:bold;vertical-align:top;">request_uri</td><td style="vertical-align:top;">:</td><td><div>/localfs/contrato/alterar_contrato/30</div></td></tr><tr><td style="font-weight:bold;vertical-align:top;">script_name</td><td style="vertical-align:top;">:</td><td><div></div></td></tr><tr><td style="font-weight:bold;vertical-align:top;">server_name</td><td style="vertical-align:top;">:</td><td><div>rogoberto.pythonanywhere.com</div></td></tr><tr><td style="font-weight:bold;vertical-align:top;">server_port</td><td style="vertical-align:top;">:</td><td><div>443</div></td></tr><tr><td style="font-weight:bold;vertical-align:top;">server_protocol</td><td style="vertical-align:top;">:</td><td><div>HTTP/1.1</div></td></tr><tr><td style="font-weight:bold;vertical-align:top;">uwsgi.node</td><td style="vertical-align:top;">:</td><td><div>green-liveweb14</div></td></tr><tr><td style="font-weight:bold;vertical-align:top;">uwsgi.version</td><td style="vertical-align:top;">:</td><td><div>2.0.17.1</div></td></tr><tr><td style="font-weight:bold;vertical-align:top;">uwsgi_node</td><td style="vertical-align:top;">:</td><td><div>green-liveweb14</div></td></tr><tr><td style="font-weight:bold;vertical-align:top;">uwsgi_version</td><td style="vertical-align:top;">:</td><td><div>2.0.17.1</div></td></tr><tr><td style="font-weight:bold;vertical-align:top;">web2py_path</td><td style="vertical-align:top;">:</td><td><div>/home/rogoberto/web2py</div></td></tr><tr><td style="font-weight:bold;vertical-align:top;">web2py_version</td><td style="vertical-align:top;">:</td><td><div>2.17.1-stable+timestamp.2018.08.06.01.02.56</div></td></tr><tr><td style="font-weight:bold;vertical-align:top;">wsgi.errors</td><td style="vertical-align:top;">:</td><td><div>&lt;uwsgi_file__bin_user_wsgi_wrapper.ErrorLogFile object at 0x7f7ccdb5fd10&gt;</div></td></tr><tr><td style="font-weight:bold;vertical-align:top;">wsgi.file_wrapper</td><td style="vertical-align:top;">:</td><td><div>&lt;built-in function uwsgi_sendfile&gt;</div></td></tr><tr><td style="font-weight:bold;vertical-align:top;">wsgi.input</td><td style="vertical-align:top;">:</td><td><div>&lt;uwsgi._Input object at 0x7f7ccd1dff00&gt;</div></td></tr><tr><td style="font-weight:bold;vertical-align:top;">wsgi.multiprocess</td><td style="vertical-align:top;">:</td><td><div>False</div></td></tr><tr><td style="font-weight:bold;vertical-align:top;">wsgi.multithread</td><td style="vertical-align:top;">:</td><td><div>False</div></td></tr><tr><td style="font-weight:bold;vertical-align:top;">wsgi.run_once</td><td style="vertical-align:top;">:</td><td><div>False</div></td></tr><tr><td style="font-weight:bold;vertical-align:top;">wsgi.url_scheme</td><td style="vertical-align:top;">:</td><td><div>https</div></td></tr><tr><td style="font-weight:bold;vertical-align:top;">wsgi.version</td><td style="vertical-align:top;">:</td><td><div><table><tr><td><div>1</div></td></tr><tr><td><div>0</div></td></tr></table></div></td></tr><tr><td style="font-weight:bold;vertical-align:top;">wsgi_errors</td><td style="vertical-align:top;">:</td><td><div>&lt;uwsgi_file__bin_user_wsgi_wrapper.ErrorLogFile object at 0x7f7ccdb5fd10&gt;</div></td></tr><tr><td style="font-weight:bold;vertical-align:top;">wsgi_file_wrapper</td><td style="vertical-align:top;">:</td><td><div>&lt;built-in function uwsgi_sendfile&gt;</div></td></tr><tr><td style="font-weight:bold;vertical-align:top;">wsgi_input</td><td style="vertical-align:top;">:</td><td><div>&lt;uwsgi._Input object at 0x7f7ccd1dff00&gt;</div></td></tr><tr><td style="font-weight:bold;vertical-align:top;">wsgi_multiprocess</td><td style="vertical-align:top;">:</td><td><div>False</div></td></tr><tr><td style="font-weight:bold;vertical-align:top;">wsgi_multithread</td><td style="vertical-align:top;">:</td><td><div>False</div></td></tr><tr><td style="font-weight:bold;vertical-align:top;">wsgi_run_once</td><td style="vertical-align:top;">:</td><td><div>False</div></td></tr><tr><td style="font-weight:bold;vertical-align:top;">wsgi_url_scheme</td><td style="vertical-align:top;">:</td><td><div>https</div></td></tr><tr><td style="font-weight:bold;vertical-align:top;">wsgi_version</td><td style="vertical-align:top;">:</td><td><div><table><tr><td><div>1</div></td></tr><tr><td><div>0</div></td></tr></table></div></td></tr></table></div></td></tr><tr><td style="font-weight:bold;vertical-align:top;">extension</td><td style="vertical-align:top;">:</td><td><div>html</div></td></tr><tr><td style="font-weight:bold;vertical-align:top;">folder</td><td style="vertical-align:top;">:</td><td><div>/home/rogoberto/web2py/applications/localfs/</div></td></tr><tr><td style="font-weight:bold;vertical-align:top;">function</td><td style="vertical-align:top;">:</td><td><div>alterar_contrato</div></td></tr><tr><td style="font-weight:bold;vertical-align:top;">global_settings</td><td style="vertical-align:top;">:</td><td><div><table><tr><td style="font-weight:bold;vertical-align:top;">app_folders</td><td style="vertical-align:top;">:</td><td><div>set([&#x27;/home/rogoberto/web2py/applications/welcome/&#x27;, &#x27;/home/rogoberto/web2py/applications/admin/&#x27;, &#x27;/home/rogoberto/web2py/applications/localfs/&#x27;, &#x27;/home/rogoberto/web2py/applications/aluminum/&#x27;])</div></td></tr><tr><td style="font-weight:bold;vertical-align:top;">applications_parent</td><td style="vertical-align:top;">:</td><td><div>/home/rogoberto/web2py</div></td></tr><tr><td style="font-weight:bold;vertical-align:top;">db_sessions</td><td style="vertical-align:top;">:</td><td><div>set([])</div></td></tr><tr><td style="font-weight:bold;vertical-align:top;">debugging</td><td style="vertical-align:top;">:</td><td><div>True</div></td></tr><tr><td style="font-weight:bold;vertical-align:top;">gluon_parent</td><td style="vertical-align:top;">:</td><td><div>/home/rogoberto/web2py</div></td></tr><tr><td style="font-weight:bold;vertical-align:top;">is_jython</td><td style="vertical-align:top;">:</td><td><div>False</div></td></tr><tr><td style="font-weight:bold;vertical-align:top;">is_py2</td><td style="vertical-align:top;">:</td><td><div>True</div></td></tr><tr><td style="font-weight:bold;vertical-align:top;">is_pypy</td><td style="vertical-align:top;">:</td><td><div>False</div></td></tr><tr><td style="font-weight:bold;vertical-align:top;">is_source</td><td style="vertical-align:top;">:</td><td><div>True</div></td></tr><tr><td style="font-weight:bold;vertical-align:top;">local_hosts</td><td style="vertical-align:top;">:</td><td><div><table><tr><td><div>35.173.69.207</div></td></tr><tr><td><div>::ffff:127.0.0.1</div></td></tr><tr><td><div>::1</div></td></tr><tr><td><div>rogoberto.pythonanywhere.com</div></td></tr><tr><td><div>127.0.0.1</div></td></tr><tr><td><div>green-liveweb14</div></td></tr><tr><td><div>localhost</div></td></tr></table></div></td></tr><tr><td style="font-weight:bold;vertical-align:top;">web2py_version</td><td style="vertical-align:top;">:</td><td><div>2.17.1-stable+timestamp.2018.08.06.01.02.56</div></td></tr></table></div></td></tr><tr><td style="font-weight:bold;vertical-align:top;">is_https</td><td style="vertical-align:top;">:</td><td><div>True</div></td></tr><tr><td style="font-weight:bold;vertical-align:top;">is_local</td><td style="vertical-align:top;">:</td><td><div>False</div></td></tr><tr><td style="font-weight:bold;vertical-align:top;">is_restful</td><td style="vertical-align:top;">:</td><td><div>False</div></td></tr><tr><td style="font-weight:bold;vertical-align:top;">is_scheduler</td><td style="vertical-align:top;">:</td><td><div>False</div></td></tr><tr><td style="font-weight:bold;vertical-align:top;">is_shell</td><td style="vertical-align:top;">:</td><td><div>False</div></td></tr><tr><td style="font-weight:bold;vertical-align:top;">method</td><td style="vertical-align:top;">:</td><td><div>GET</div></td></tr><tr><td style="font-weight:bold;vertical-align:top;">now</td><td style="vertical-align:top;">:</td><td><div>datetime.datetime(2020, 7, 6, 7, 7, 10, 617851)</div></td></tr><tr><td style="font-weight:bold;vertical-align:top;">raw_args</td><td style="vertical-align:top;">:</td><td><div>30</div></td></tr><tr><td style="font-weight:bold;vertical-align:top;">raw_extension</td><td style="vertical-align:top;">:</td><td><div>None</div></td></tr><tr><td style="font-weight:bold;vertical-align:top;">url</td><td style="vertical-align:top;">:</td><td><div>/localfs/contrato/alterar_contrato/30</div></td></tr><tr><td style="font-weight:bold;vertical-align:top;">utcnow</td><td style="vertical-align:top;">:</td><td><div>datetime.datetime(2020, 7, 6, 7, 7, 10, 617884)</div></td></tr><tr><td style="font-weight:bold;vertical-align:top;">wsgi</td><td style="vertical-align:top;">:</td><td><div>&lt;gluon.main.LazyWSGI object at 0x7f7cc65477d0&gt;</div></td></tr></table></div>'
tRp60
sS'frames'
p61
(lp62
(dp63
S'file'
p64
S'/home/rogoberto/web2py/gluon/restricted.py'
p65
sS'dump'
p66
(dp67
S'environment'
p68
S"{'A': <class 'gluon.html.A'>, 'ANY_OF': <class 'gluon.validators.ANY_OF'>, 'ASSIGNJS': <function ASSIGNJS>, 'AppConfig': <function AppConfig>, 'Auth': <class 'gluon.tools.Auth'>, 'B': <class 'gluon.html.B'>, 'BEAUTIFY': <class 'gluon.html.BEAUTIFY'>, 'BODY': <class 'gluon.html.BODY'>, 'BR': <class 'gluon.html.BR'>, 'BUTTON': <class 'gluon.html.BUTTON'>, ...}"
p69
sS'ccode'
p70
S'<code object <module> at 0x7f7cc6777630, file "/...cations/localfs/controllers/contrato.py", line 2>'
p71
ssS'lnum'
p72
I219
sS'lines'
p73
(dp74
I214
S'    if environment is None:'
p75
sI215
S'        environment = {}'
p76
sI216
S"    environment['__file__'] = layer"
p77
sI217
S"    environment['__name__'] = '__restricted__'"
p78
sI218
S'    try:'
p79
sI219
S'        exec(ccode, environment)'
p80
sI220
S'    except HTTP:'
p81
sI221
S'        raise'
p82
sI222
S'    except RestrictedError:'
p83
sI223
S'        # do not encapsulate (obfuscate) the original RestrictedError'
p84
ssS'call'
p85
S'(ccode=<code object <module> at 0x7f7cc6777630, file "/...cations/localfs/controllers/contrato.py", line 2>, environment={\'A\': <class \'gluon.html.A\'>, \'ANY_OF\': <class \'gluon.validators.ANY_OF\'>, \'ASSIGNJS\': <function ASSIGNJS>, \'AppConfig\': <function AppConfig>, \'Auth\': <class \'gluon.tools.Auth\'>, \'B\': <class \'gluon.html.B\'>, \'BEAUTIFY\': <class \'gluon.html.BEAUTIFY\'>, \'BODY\': <class \'gluon.html.BODY\'>, \'BR\': <class \'gluon.html.BR\'>, \'BUTTON\': <class \'gluon.html.BUTTON\'>, ...}, layer=\'/home/rogoberto/web2py/applications/localfs/controllers/contrato.py\', scode=<code object <module> at 0x7f7cc6777630, file "/...cations/localfs/controllers/contrato.py", line 2>)'
p86
sS'func'
p87
S'restricted'
p88
sa(dp89
g64
S'/home/rogoberto/web2py/applications/localfs/controllers/contrato.py'
p90
sg66
(dp91
sg72
I198
sg73
(dp92
I192
S'    locador=db.pessoa(contrato.locador)'
p93
sI193
S'    locatario=db.pessoa(contrato.locatario)'
p94
sI194
S'    imovel=db.imovel(contrato.imovel)'
p95
sI195
S'    rows = db(db.recebimento.contrato_aluguel==request.args(0, cast=int)).select(orderby=db.recebimento.data_vencimento)'
p96
sI196
S'    return  locals()'
p97
sI187
S''
sI188
S'@auth.requires_login()'
p98
sI189
S'def carne():'
p99
sI190
S"    #response.view = 'generic.html' # use a generic view"
p100
sI191
S'    contrato=db.contrato_aluguel(request.args(0, cast=int))'
p101
ssg85
S'()'
p102
sg87
S'<module>'
p103
sa(dp104
g64
S'/home/rogoberto/web2py/gluon/globals.py'
p105
sg66
(dp106
S'self'
p107
S'undefined'
p108
sS'f'
S'<function alterar_contrato>'
p109
ssg72
I421
sg73
(dp110
I416
S"        self.flash = ''            # used by the default view layout"
p111
sI417
S'        self.meta = Storage()      # used by web2py_ajax.html'
p112
sI418
S'        self.menu = []             # used by the default view layout'
p113
sI419
S'        self.files = []            # used by web2py_ajax.html'
p114
sI420
S'        self._vars = None'
p115
sI421
S'        self._caller = lambda f: f()'
p116
sI422
S'        self._view_environment = None'
p117
sI423
S'        self._custom_commit = None'
p118
sI424
S'        self._custom_rollback = None'
p119
sI425
S"        self.generic_patterns = ['*']"
p120
ssg85
S'(f=<function alterar_contrato>)'
p121
sg87
S'<lambda>'
p122
sa(dp123
g64
S'/home/rogoberto/web2py/gluon/tools.py'
p124
sg66
(dp125
S'action'
p126
S'<function alterar_contrato>'
p127
sS'a'
S'()'
p128
sS'b'
g19
ssg72
I3862
sg73
(dp129
I3857
S'                    flag = condition'
p130
sI3858
S'                if not flag:'
p131
sI3859
S'                    current.session.flash = self.messages.access_denied'
p132
sI3860
S'                    return call_or_redirect('
p133
sI3861
S'                        self.settings.on_failed_authorization)'
p134
sI3862
S'                return action(*a, **b)'
p135
sI3863
S'            f.__doc__ = action.__doc__'
p136
sI3864
S'            f.__name__ = action.__name__'
p137
sI3865
S'            f.__dict__.update(action.__dict__)'
p138
sI3866
S'            return f'
p139
ssg85
S'(*a=(), **b={})'
p140
sg87
S'f'
sa(dp141
g64
S'/home/rogoberto/web2py/applications/localfs/controllers/contrato.py'
p142
sg66
(dp143
S'db.recebimento.quitado'
p144
S'<pydal.objects.Field object>'
p145
sS'contrato_aluguel'
p146
S'<Row {\'recebimento\': <Set ("recebimento"."contra...NHENTOS REAIS\', \'id\': 30L, \'dia_vencimento\': 6L}>'
p147
sS').select'
p148
g108
sS'db.recebimento.contrato_aluguel'
p149
S'<pydal.objects.Field object>'
p150
sS'contrato_aluguel.id'
p151
S'30L'
p152
sS'db.recebimento'
p153
S'<Table recebimento (id, imovel, contrato_aluguel...agamento, data_pagamento, valor, juros, quitado)>'
p154
sS'num'
p155
g108
sS'builtinsum'
p156
S'<built-in function sum>'
p157
sS'global db'
p158
S'<DAL uri="sqlite://storage.sqlite">'
p159
ssg72
I87
sg73
(dp160
I82
S''
sI83
S'    contrato_aluguel=db.contrato_aluguel(request.args(0, cast=int))'
p161
sI84
S'    db.contrato_aluguel.id.readable = False'
p162
sI85
S'    db.contrato_aluguel.id.writable = False'
p163
sI86
S''
sI87
S'    num=db((db.recebimento.contrato_aluguel==contrato_aluguel.id)&(db.recebimento.quitado)).select(sum)[sum]'
p164
sI88
S'    deletar=True'
p165
sI89
S'    if num>0:'
p166
sI90
S'        deletar=False'
p167
sI91
S'    form = SQLFORM(db.contrato_aluguel, request.args(0, cast=int), deletable=deletar)'
p168
ssg85
S'()'
p169
sg87
S'alterar_contrato'
p170
sa(dp171
g64
S'/home/rogoberto/web2py/gluon/packages/dal/pydal/objects.py'
p172
sg66
(dp173
S'self.query'
p174
S'<Query (("recebimento"."contrato_aluguel" = 30) AND "recebimento"."quitado")>'
p175
sS'adapter.select'
p176
S'<bound method SQLite.select of <pydal.adapters.sqlite.SQLite object>>'
p177
sS'fields'
p178
S'[<built-in function sum>]'
p179
sS'adapter'
p180
S'<pydal.adapters.sqlite.SQLite object>'
p181
sS'attributes'
p182
g19
sS'self'
p183
S'<Set (("recebimento"."contrato_aluguel" = 30) AND "recebimento"."quitado")>'
p184
ssg72
I2277
sg73
(dp185
I2272
S"                                    attributes.get('join', None),"
p186
sI2273
S"                                    attributes.get('left', None),"
p187
sI2274
S"                                    attributes.get('orderby', None),"
p188
sI2275
S"                                    attributes.get('groupby', None))"
p189
sI2276
S'        fields = adapter.expand_all(fields, tablenames)'
p190
sI2277
S'        return adapter.select(self.query, fields, attributes)'
p191
sI2278
S''
sI2279
S'    def iterselect(self, *fields, **attributes):'
p192
sI2280
S'        adapter = self.db._adapter'
p193
sI2281
S'        tablenames = adapter.tables(self.query,'
p194
ssg85
S'(self=<Set (("recebimento"."contrato_aluguel" = 30) AND "recebimento"."quitado")>, *fields=[<built-in function sum>], **attributes={})'
p195
sg87
S'select'
p196
sa(dp197
g64
S'/home/rogoberto/web2py/gluon/packages/dal/pydal/adapters/sqlite.py'
p198
sg66
(dp199
S'fields'
p200
S'[<built-in function sum>]'
p201
sS'self'
p202
S'<pydal.adapters.sqlite.SQLite object>'
p203
sS').select'
p204
S'<bound method SQLite.select of <pydal.adapters.sqlite.SQLite object>>'
p205
sS'attributes'
p206
g19
sS'query'
p207
S'<Query (("recebimento"."contrato_aluguel" = 30) AND "recebimento"."quitado")>'
p208
sS'builtinsuper'
p209
S"<type 'super'>"
p210
sS'global SQLite'
p211
S"<class 'pydal.adapters.sqlite.SQLite'>"
p212
ssg72
I82
sg73
(dp213
I77
S"            self.execute('PRAGMA foreign_keys=ON;')"
p214
sI78
S''
sI79
S'    def select(self, query, fields, attributes):'
p215
sI80
S"        if attributes.get('for_update', False) and 'cache' not in attributes:"
p216
sI81
S"            self.execute('BEGIN IMMEDIATE TRANSACTION;')"
p217
sI82
S'        return super(SQLite, self).select(query, fields, attributes)'
p218
sI83
S''
sI84
S'    def delete(self, table, query):'
p219
sI85
S'        db = self.db'
p220
sI86
S'        deleted = [x[table._id.name] for x in db(query).select(table._id)]'
p221
ssg85
S'(self=<pydal.adapters.sqlite.SQLite object>, query=<Query (("recebimento"."contrato_aluguel" = 30) AND "recebimento"."quitado")>, fields=[<built-in function sum>], attributes={})'
p222
sg87
g196
sa(dp223
g64
S'/home/rogoberto/web2py/gluon/packages/dal/pydal/adapters/base.py'
p224
sg66
(dp225
S'fields'
p226
S'[<built-in function sum>]'
p227
sS'self'
p228
S'<pydal.adapters.sqlite.SQLite object>'
p229
sS'self._select_wcols'
p230
S'<bound method SQLite._select_wcols of <pydal.adapters.sqlite.SQLite object>>'
p231
sS'sql'
p232
g108
sS'query'
p233
S'<Query (("recebimento"."contrato_aluguel" = 30) AND "recebimento"."quitado")>'
p234
sS'colnames'
p235
g108
sS'attributes'
p236
g19
ssg72
I758
sg73
(dp237
I753
S'            time_expire)'
p238
sI754
S'        ret._restore_fields(fields)'
p239
sI755
S'        return ret'
p240
sI756
S''
sI757
S'    def select(self, query, fields, attributes):'
p241
sI758
S'        colnames, sql = self._select_wcols(query, fields, **attributes)'
p242
sI759
S"        cache = attributes.get('cache', None)"
p243
sI760
S"        if cache and attributes.get('cacheable', False):"
p244
sI761
S'            return self._cached_select('
p245
sI762
S'                cache, sql, fields, attributes, colnames)'
p246
ssg85
S'(self=<pydal.adapters.sqlite.SQLite object>, query=<Query (("recebimento"."contrato_aluguel" = 30) AND "recebimento"."quitado")>, fields=[<built-in function sum>], attributes={})'
p247
sg87
g196
sa(dp248
g64
S'/home/rogoberto/web2py/gluon/packages/dal/pydal/adapters/base.py'
p249
sg66
(dp250
S'x'
S'<built-in function sum>'
p251
sS'fields'
p252
S'[<built-in function sum>]'
p253
sS'self'
p254
S'<pydal.adapters.sqlite.SQLite object>'
p255
sS'query_env'
p256
S"{'current_scope': ['recebimento'], 'parent_scope': []}"
p257
sS'self._geoexpand'
p258
S'<bound method SQLite._geoexpand of <pydal.adapters.sqlite.SQLite object>>'
p259
sS'sql_fields'
p260
g108
ssg72
I633
sg73
(dp261
I628
S'        current_scope = outer_scoped + list(tablemap)'
p262
sI629
S'        query_env = dict(current_scope=current_scope,'
p263
sI630
S'            parent_scope=outer_scoped)'
p264
sI631
S'        #: prepare columns and expand fields'
p265
sI632
S'        colnames = [self._colexpand(x, query_env) for x in fields]'
p266
sI633
S"        sql_fields = ', '.join(self._geoexpand(x, query_env) for x in fields)"
p267
sI634
S'        table_alias = lambda name: tablemap[name].query_name(outer_scoped)[0]'
p268
sI635
S'        if join and not left:'
p269
sI636
S'            cross_joins = iexcluded + list(itables_to_merge)'
p270
sI637
S'            tokens = [table_alias(cross_joins[0])]'
p271
ssg85
S'(self=<pydal.adapters.sqlite.SQLite object>, query=<Query (("recebimento"."contrato_aluguel" = 30) AND "recebimento"."quitado")>, fields=[<built-in function sum>], left=False, join=False, distinct=False, orderby=False, groupby=False, having=False, limitby=False, orderby_on_limitby=True, for_update=False, outer_scoped=[], required=None, cache=None, cacheable=None, processor=None)'
p272
sg87
S'_select_wcols'
p273
sa(dp274
g64
S'/home/rogoberto/web2py/gluon/packages/dal/pydal/adapters/base.py'
p275
sg66
(dp276
S'x'
S'<built-in function sum>'
p277
sS'fields'
p278
g108
sS'self'
p279
S'<pydal.adapters.sqlite.SQLite object>'
p280
sS'query_env'
p281
S"{'current_scope': ['recebimento'], 'parent_scope': []}"
p282
sS'self._geoexpand'
p283
S'<bound method SQLite._geoexpand of <pydal.adapters.sqlite.SQLite object>>'
p284
sS'sql_fields'
p285
g108
ssg72
I633
sg73
(dp286
I628
S'        current_scope = outer_scoped + list(tablemap)'
p287
sI629
S'        query_env = dict(current_scope=current_scope,'
p288
sI630
S'            parent_scope=outer_scoped)'
p289
sI631
S'        #: prepare columns and expand fields'
p290
sI632
S'        colnames = [self._colexpand(x, query_env) for x in fields]'
p291
sI633
S"        sql_fields = ', '.join(self._geoexpand(x, query_env) for x in fields)"
p292
sI634
S'        table_alias = lambda name: tablemap[name].query_name(outer_scoped)[0]'
p293
sI635
S'        if join and not left:'
p294
sI636
S'            cross_joins = iexcluded + list(itables_to_merge)'
p295
sI637
S'            tokens = [table_alias(cross_joins[0])]'
p296
ssg85
S'((x=<built-in function sum>,))'
p297
sg87
S'<genexpr>'
p298
sa(dp299
g64
S'/home/rogoberto/web2py/gluon/packages/dal/pydal/adapters/base.py'
p300
sg66
(dp301
S'field.type'
p302
g108
sS'builtinisinstance'
p303
S'<built-in function isinstance>'
p304
sS'builtinstr'
p305
S"<type 'str'>"
p306
sS'global Field'
p307
S"<class 'pydal.objects.Field'>"
p308
sS'field'
p309
S'<built-in function sum>'
p310
ssg72
I551
sg73
(dp311
I546
S''
sI547
S'    def _colexpand(self, field, query_env):'
p312
sI548
S'        return self.expand(field, colnames=True, query_env=query_env)'
p313
sI549
S''
sI550
S'    def _geoexpand(self, field, query_env):'
p314
sI551
S"        if isinstance(field.type, str) and field.type.startswith('geo') and \\"
p315
sI552
S'           isinstance(field, Field):'
p316
sI553
S'            field = field.st_astext()'
p317
sI554
S'        return self.expand(field, query_env=query_env)'
p318
sI555
S''
ssg85
S"(self=<pydal.adapters.sqlite.SQLite object>, field=<built-in function sum>, query_env={'current_scope': ['recebimento'], 'parent_scope': []})"
p319
sg87
S'_geoexpand'
p320
sasS'pyver'
p321
S'Python 2.7.12: /usr/local/bin/uwsgi (prefix: /usr)'
p322
sS'session'
p323
g59
(S's\xe5\x08\x00\x00<div><table><tr><td style="font-weight:bold;vertical-align:top;">auth</td><td style="vertical-align:top;">:</td><td><div><table><tr><td style="font-weight:bold;vertical-align:top;">expiration</td><td style="vertical-align:top;">:</td><td><div>3600</div></td></tr><tr><td style="font-weight:bold;vertical-align:top;">hmac_key</td><td style="vertical-align:top;">:</td><td><div>8b541091-8b98-48d5-b9f5-958bc369bcca</div></td></tr><tr><td style="font-weight:bold;vertical-align:top;">last_visit</td><td style="vertical-align:top;">:</td><td><div>datetime.datetime(2020, 7, 6, 7, 2, 15, 399128)</div></td></tr><tr><td style="font-weight:bold;vertical-align:top;">remember_me</td><td style="vertical-align:top;">:</td><td><div>False</div></td></tr><tr><td style="font-weight:bold;vertical-align:top;">user</td><td style="vertical-align:top;">:</td><td><div><table><tr><td style="font-weight:bold;vertical-align:top;">email</td><td style="vertical-align:top;">:</td><td><div>usbetin@gmail.com</div></td></tr><tr><td style="font-weight:bold;vertical-align:top;">first_name</td><td style="vertical-align:top;">:</td><td><div>teste</div></td></tr><tr><td style="font-weight:bold;vertical-align:top;">id</td><td style="vertical-align:top;">:</td><td><div>1L</div></td></tr><tr><td style="font-weight:bold;vertical-align:top;">last_name</td><td style="vertical-align:top;">:</td><td><div>teste</div></td></tr><tr><td style="font-weight:bold;vertical-align:top;">registration_id</td><td style="vertical-align:top;">:</td><td><div></div></td></tr><tr><td style="font-weight:bold;vertical-align:top;">registration_key</td><td style="vertical-align:top;">:</td><td><div></div></td></tr><tr><td style="font-weight:bold;vertical-align:top;">reset_password_key</td><td style="vertical-align:top;">:</td><td><div></div></td></tr></table></div></td></tr><tr><td style="font-weight:bold;vertical-align:top;">user_groups</td><td style="vertical-align:top;">:</td><td><div><table><tr><td style="font-weight:bold;vertical-align:top;">1</td><td style="vertical-align:top;">:</td><td><div>user_1</div></td></tr></table></div></td></tr></table></div></td></tr><tr><td style="font-weight:bold;vertical-align:top;">flash</td><td style="vertical-align:top;">:</td><td><div>None</div></td></tr></table></div>'
tRp324
sS'etype'
p325
S"<type 'exceptions.AttributeError'>"
p326
sS'date'
p327
S'Mon Jul  6 07:07:13 2020'
p328
sS'response'
p329
g59
(S'st)\x00\x00<div><table><tr><td style="font-weight:bold;vertical-align:top;">body</td><td style="vertical-align:top;">:</td><td><div>&lt;cStringIO.StringO object at 0x7f7cc5a685e0&gt;</div></td></tr><tr><td style="font-weight:bold;vertical-align:top;">cookies</td><td style="vertical-align:top;">:</td><td><div><table><tr><td style="font-weight:bold;vertical-align:top;">session_id_localfs</td><td style="vertical-align:top;">:</td><td><div>177.37.231.221-6c320a87-a79a-47cb-9016-bc4024c61f8a<table><tr><td style="font-weight:bold;vertical-align:top;">comment</td><td style="vertical-align:top;">:</td><td><div></div></td></tr><tr><td style="font-weight:bold;vertical-align:top;">domain</td><td style="vertical-align:top;">:</td><td><div></div></td></tr><tr><td style="font-weight:bold;vertical-align:top;">expires</td><td style="vertical-align:top;">:</td><td><div></div></td></tr><tr><td style="font-weight:bold;vertical-align:top;">httponly</td><td style="vertical-align:top;">:</td><td><div></div></td></tr><tr><td style="font-weight:bold;vertical-align:top;">max-age</td><td style="vertical-align:top;">:</td><td><div></div></td></tr><tr><td style="font-weight:bold;vertical-align:top;">path</td><td style="vertical-align:top;">:</td><td><div>/</div></td></tr><tr><td style="font-weight:bold;vertical-align:top;">secure</td><td style="vertical-align:top;">:</td><td><div></div></td></tr><tr><td style="font-weight:bold;vertical-align:top;">version</td><td style="vertical-align:top;">:</td><td><div></div></td></tr></table></div></td></tr></table></div></td></tr><tr><td style="font-weight:bold;vertical-align:top;">delimiters</td><td style="vertical-align:top;">:</td><td><div><table><tr><td><div>{{</div></td></tr><tr><td><div>}}</div></td></tr></table></div></td></tr><tr><td style="font-weight:bold;vertical-align:top;">files</td><td style="vertical-align:top;">:</td><td><div><table></table></div></td></tr><tr><td style="font-weight:bold;vertical-align:top;">flash</td><td style="vertical-align:top;">:</td><td><div></div></td></tr><tr><td style="font-weight:bold;vertical-align:top;">form_label_separator</td><td style="vertical-align:top;">:</td><td><div></div></td></tr><tr><td style="font-weight:bold;vertical-align:top;">formstyle</td><td style="vertical-align:top;">:</td><td><div>bootstrap4_inline</div></td></tr><tr><td style="font-weight:bold;vertical-align:top;">generic_patterns</td><td style="vertical-align:top;">:</td><td><div><table></table></div></td></tr><tr><td style="font-weight:bold;vertical-align:top;">google_analytics_id</td><td style="vertical-align:top;">:</td><td><div>None</div></td></tr><tr><td style="font-weight:bold;vertical-align:top;">headers</td><td style="vertical-align:top;">:</td><td><div><table><tr><td style="font-weight:bold;vertical-align:top;">X-Powered-By</td><td style="vertical-align:top;">:</td><td><div>web2py</div></td></tr></table></div></td></tr><tr><td style="font-weight:bold;vertical-align:top;">menu</td><td style="vertical-align:top;">:</td><td><div><table><tr><td><div><table><tr><td><div>Principal</div></td></tr><tr><td><div>False</div></td></tr><tr><td><div>/localfs/default/index</div></td></tr><tr><td><div><table></table></div></td></tr></table></div></td></tr><tr><td><div><table><tr><td><div>Cadastro</div></td></tr><tr><td><div>False</div></td></tr><tr><td><div>None</div></td></tr><tr><td><div><table><tr><td><div><table><tr><td><div>Pessoa</div></td></tr><tr><td><div>False</div></td></tr><tr><td><div>/localfs/pessoa/cadastro_pessoa</div></td></tr><tr><td><div>[]</div></td></tr></table></div></td></tr><tr><td><div><table><tr><td><div>Imovel</div></td></tr><tr><td><div>False</div></td></tr><tr><td><div>/localfs/imovel/cadastro_imovel</div></td></tr><tr><td><div>[]</div></td></tr></table></div></td></tr></table></div></td></tr></table></div></td></tr><tr><td><div><table><tr><td><div>Consulta</div></td></tr><tr><td><div>False</div></td></tr><tr><td><div>None</div></td></tr><tr><td><div><table><tr><td><div><table><tr><td><div>Pessoa</div></td></tr><tr><td><div>False</div></td></tr><tr><td><div>/localfs/pessoa/acesso</div></td></tr><tr><td><div>[]</div></td></tr></table></div></td></tr><tr><td><div><table><tr><td><div>Imovel</div></td></tr><tr><td><div>False</div></td></tr><tr><td><div>/localfs/imovel/acesso</div></td></tr><tr><td><div>[]</div></td></tr></table></div></td></tr></table></div></td></tr></table></div></td></tr><tr><td><div><table><tr><td><div>Lembrete</div></td></tr><tr><td><div>False</div></td></tr><tr><td><div>#</div></td></tr><tr><td><div><table><tr><td><div><table><tr><td><div>Imoveis disponiveis</div></td></tr><tr><td><div>False</div></td></tr><tr><td><div>/localfs/contrato/#</div></td></tr><tr><td><div>[]</div></td></tr></table></div></td></tr><tr><td><div><table><tr><td><div>Imoveis indisponiveis</div></td></tr><tr><td><div>False</div></td></tr><tr><td><div>/localfs/contrato/#</div></td></tr><tr><td><div>[]</div></td></tr></table></div></td></tr><tr><td><div><table><tr><td><div>Recebimentos em debito</div></td></tr><tr><td><div>False</div></td></tr><tr><td><div>/localfs/contrato/#</div></td></tr><tr><td><div>[]</div></td></tr></table></div></td></tr><tr><td><div><table><tr><td><div>Recebimentos quitados</div></td></tr><tr><td><div>False</div></td></tr><tr><td><div>/localfs/contrato/#</div></td></tr><tr><td><div>[]</div></td></tr></table></div></td></tr><tr><td><div><table><tr><td><div>Despesas empresarias</div></td></tr><tr><td><div>False</div></td></tr><tr><td><div>/localfs/contrato/#</div></td></tr><tr><td><div>[]</div></td></tr></table></div></td></tr><tr><td><div><table><tr><td><div>Despesas por imovel</div></td></tr><tr><td><div>False</div></td></tr><tr><td><div>/localfs/contrato/#</div></td></tr><tr><td><div>[]</div></td></tr></table></div></td></tr><tr><td><div><table><tr><td><div>Contratos vencidos</div></td></tr><tr><td><div>False</div></td></tr><tr><td><div>/localfs/contrato/#</div></td></tr><tr><td><div>[]</div></td></tr></table></div></td></tr><tr><td><div><table><tr><td><div>Recebimentos</div></td></tr><tr><td><div>False</div></td></tr><tr><td><div>/localfs/contrato/#</div></td></tr><tr><td><div>[]</div></td></tr></table></div></td></tr><tr><td><div><table><tr><td><div>Gastos e despesas</div></td></tr><tr><td><div>False</div></td></tr><tr><td><div>/localfs/contrato/#</div></td></tr><tr><td><div>[]</div></td></tr></table></div></td></tr><tr><td><div><table><tr><td><div>Contratos novos</div></td></tr><tr><td><div>False</div></td></tr><tr><td><div>/localfs/contrato/#</div></td></tr><tr><td><div>[]</div></td></tr></table></div></td></tr></table></div></td></tr></table></div></td></tr></table></div></td></tr><tr><td style="font-weight:bold;vertical-align:top;">meta</td><td style="vertical-align:top;">:</td><td><div><table><tr><td style="font-weight:bold;vertical-align:top;">author</td><td style="vertical-align:top;">:</td><td><div>Your Name &lt;you@example.com&gt;</div></td></tr><tr><td style="font-weight:bold;vertical-align:top;">description</td><td style="vertical-align:top;">:</td><td><div>a cool new app</div></td></tr><tr><td style="font-weight:bold;vertical-align:top;">generator</td><td style="vertical-align:top;">:</td><td><div>Web2py Web Framework</div></td></tr><tr><td style="font-weight:bold;vertical-align:top;">keywords</td><td style="vertical-align:top;">:</td><td><div><table><tr><td><div>web2py</div></td></tr><tr><td><div>python</div></td></tr><tr><td><div>framework</div></td></tr></table></div></td></tr></table></div></td></tr><tr><td style="font-weight:bold;vertical-align:top;">models_to_run</td><td style="vertical-align:top;">:</td><td><div><table><tr><td><div>^\\w+\\.py$</div></td></tr><tr><td><div>^contrato/\\w+\\.py$</div></td></tr><tr><td><div>^contrato/alterar_contrato/\\w+\\.py$</div></td></tr></table></div></td></tr><tr><td style="font-weight:bold;vertical-align:top;">postprocessing</td><td style="vertical-align:top;">:</td><td><div><table></table></div></td></tr><tr><td style="font-weight:bold;vertical-align:top;">session_client</td><td style="vertical-align:top;">:</td><td><div>177.37.231.221</div></td></tr><tr><td style="font-weight:bold;vertical-align:top;">session_cookie_compression_level</td><td style="vertical-align:top;">:</td><td><div>None</div></td></tr><tr><td style="font-weight:bold;vertical-align:top;">session_cookie_expires</td><td style="vertical-align:top;">:</td><td><div>None</div></td></tr><tr><td style="font-weight:bold;vertical-align:top;">session_data_name</td><td style="vertical-align:top;">:</td><td><div>session_data_localfs</div></td></tr><tr><td style="font-weight:bold;vertical-align:top;">session_file</td><td style="vertical-align:top;">:</td><td><div>&lt;open file &#x27;/home/rogoberto/web2py/applications/localfs/sessions/06d/1ab/177.37.231.221-6c320a87-a79a-47cb-9016-bc4024c61f8a&#x27;, mode &#x27;rb+&#x27; at 0x7f7cc6f078a0&gt;</div></td></tr><tr><td style="font-weight:bold;vertical-align:top;">session_filename</td><td style="vertical-align:top;">:</td><td><div>/home/rogoberto/web2py/applications/localfs/sessions/177.37.231.221-6c320a87-a79a-47cb-9016-bc4024c61f8a</div></td></tr><tr><td style="font-weight:bold;vertical-align:top;">session_hash</td><td style="vertical-align:top;">:</td><td><div>c2dc6e37b14df6d3e8cb85e7eebd5e7e</div></td></tr><tr><td style="font-weight:bold;vertical-align:top;">session_id</td><td style="vertical-align:top;">:</td><td><div>177.37.231.221-6c320a87-a79a-47cb-9016-bc4024c61f8a</div></td></tr><tr><td style="font-weight:bold;vertical-align:top;">session_id_name</td><td style="vertical-align:top;">:</td><td><div>session_id_localfs</div></td></tr><tr><td style="font-weight:bold;vertical-align:top;">session_locked</td><td style="vertical-align:top;">:</td><td><div>True</div></td></tr><tr><td style="font-weight:bold;vertical-align:top;">session_masterapp</td><td style="vertical-align:top;">:</td><td><div>localfs</div></td></tr><tr><td style="font-weight:bold;vertical-align:top;">session_new</td><td style="vertical-align:top;">:</td><td><div>False</div></td></tr><tr><td style="font-weight:bold;vertical-align:top;">session_storage_type</td><td style="vertical-align:top;">:</td><td><div>file</div></td></tr><tr><td style="font-weight:bold;vertical-align:top;">show_toolbar</td><td style="vertical-align:top;">:</td><td><div>False</div></td></tr><tr><td style="font-weight:bold;vertical-align:top;">status</td><td style="vertical-align:top;">:</td><td><div>200</div></td></tr><tr><td style="font-weight:bold;vertical-align:top;">view</td><td style="vertical-align:top;">:</td><td><div>generic.html</div></td></tr></table></div>'
tRp330
sS'locals'
p331
(dp332
S'query_env'
p333
S"{'current_scope': ['recebimento'], 'parent_scope': []}"
p334
sS'self'
p335
S'<pydal.adapters.sqlite.SQLite object>'
p336
sS'field'
p337
S'<built-in function sum>'
p338
sssS'traceback'
p339
S'Traceback (most recent call last):\n  File "/home/rogoberto/web2py/gluon/restricted.py", line 219, in restricted\n    exec(ccode, environment)\n  File "/home/rogoberto/web2py/applications/localfs/controllers/contrato.py", line 198, in <module>\n  File "/home/rogoberto/web2py/gluon/globals.py", line 421, in <lambda>\n    self._caller = lambda f: f()\n  File "/home/rogoberto/web2py/gluon/tools.py", line 3862, in f\n    return action(*a, **b)\n  File "/home/rogoberto/web2py/applications/localfs/controllers/contrato.py", line 87, in alterar_contrato\n    num=db((db.recebimento.contrato_aluguel==contrato_aluguel.id)&(db.recebimento.quitado)).select(sum)[sum]\n  File "/home/rogoberto/web2py/gluon/packages/dal/pydal/objects.py", line 2277, in select\n    return adapter.select(self.query, fields, attributes)\n  File "/home/rogoberto/web2py/gluon/packages/dal/pydal/adapters/sqlite.py", line 82, in select\n    return super(SQLite, self).select(query, fields, attributes)\n  File "/home/rogoberto/web2py/gluon/packages/dal/pydal/adapters/base.py", line 758, in select\n    colnames, sql = self._select_wcols(query, fields, **attributes)\n  File "/home/rogoberto/web2py/gluon/packages/dal/pydal/adapters/base.py", line 633, in _select_wcols\n    sql_fields = \', \'.join(self._geoexpand(x, query_env) for x in fields)\n  File "/home/rogoberto/web2py/gluon/packages/dal/pydal/adapters/base.py", line 633, in <genexpr>\n    sql_fields = \', \'.join(self._geoexpand(x, query_env) for x in fields)\n  File "/home/rogoberto/web2py/gluon/packages/dal/pydal/adapters/base.py", line 551, in _geoexpand\n    if isinstance(field.type, str) and field.type.startswith(\'geo\') and \\\nAttributeError: \'builtin_function_or_method\' object has no attribute \'type\'\n'
p340
s.