(dp1
S'output'
p2
S"<type 'exceptions.TypeError'> object of type 'NoneType' has no len()"
p3
sS'layer'
p4
S'/home/rogoberto/web2py/applications/localfs/views/contrato/gerar_contrato.html'
p5
sS'code'
p6
S'response.write(\'<!DOCTYPE html>\\n<!--[if (gt IE 9)|!(IE)]><!--> <html class="no-js" lang="\', escape=False)\nresponse.write(T.accepted_language or \'en\')\nresponse.write(\'"> <!--<![endif]-->\\n  <head>\\n    <meta charset="utf-8">\\n    <!-- www.phpied.com/conditional-comments-block-downloads/ -->\\n    <!-- Always force latest IE rendering engine\\n         (even in intranet) & Chrome Frame\\n         Remove this if you use the .htaccess -->\\n    <!--  Mobile Viewport Fix\\n          j.mp/mobileviewport & davidbcalhoun.com/2010/viewport-metatag\\n          device-width: Occupy full width of the screen in its current orientation\\n          initial-scale = 1.0 retains dimensions instead of zooming out if page height > device height\\n          user-scalable = yes allows the user to zoom in -->\\n    <meta name="viewport" content="width=device-width, initial-scale=1.0">\\n    <title>\', escape=False)\nresponse.write(response.title or request.application)\nresponse.write(\'</title>\\n    <!-- http://dev.w3.org/html5/markup/meta.name.html -->\\n    <meta name="application-name" content="\', escape=False)\nresponse.write(request.application)\nresponse.write(\'">\\n    <!-- Speaking of Google, don\\\'t forget to set your site up:\\n         http://google.com/webmasters -->\\n    <meta name="google-site-verification" content="">\\n    <!-- include stylesheets -->\\n    <link rel="stylesheet" href="https://cdnjs.cloudflare.com/ajax/libs/font-awesome/4.7.0/css/font-awesome.min.css"/>\\n    <link rel="stylesheet" href="\', escape=False)\nresponse.write(URL(\'static\',\'css/bootstrap.min.css\'))\nresponse.write(\'"/>\\n    <link rel="stylesheet" href="\', escape=False)\nresponse.write(URL(\'static\',\'css/web2py-bootstrap4.css\'))\nresponse.write(\'"/>\\n    <link rel="shortcut icon" href="\', escape=False)\nresponse.write(URL(\'static\',\'images/favicon.ico\'))\nresponse.write(\'" type="image/x-icon">\\n    <link rel="apple-touch-icon" href="\', escape=False)\nresponse.write(URL(\'static\',\'images/favicon.png\'))\nresponse.write(\'">\\n    <!-- All JavaScript at the bottom, except for Modernizr which enables\\n         HTML5 elements & feature detects -->\\n    <script src="\', escape=False)\nresponse.write(URL(\'static\',\'js/modernizr-2.8.3.min.js\'))\nresponse.write(\'"></script>\\n    <!-- Favicons -->\\n    \', escape=False)\nresponse.write(\'<script type="text/javascript"><!--\\n    // These variables are used by the web2py_ajax_init function in web2py_ajax.js (which is loaded below).\\n    \', escape=False)\nresponse.write(ASSIGNJS(\nw2p_ajax_confirm_message = T(\'Are you sure you want to delete this object?\'),\nw2p_ajax_disable_with_message = T(\'Working...\'),\nw2p_ajax_date_format = T(\'%Y-%m-%d\'),\nw2p_ajax_datetime_format = T(\'%Y-%m-%d %H:%M:%S\'),\najax_error_500 = T.M(\'An error occured, please [[reload %s]] the page\') % URL(args=request.args, vars=request.get_vars)\n))\nresponse.write(\'\\n    //--></script>\\n\', escape=False)\nresponse.files.insert(0,URL(\'static\',\'js/jquery.js\'))\nresponse.files.insert(1,URL(\'static\',\'css/calendar.css\'))\nresponse.files.insert(2,URL(\'static\',\'js/calendar.js\'))\nresponse.files.insert(3,URL(\'static\',\'js/web2py.js\'))\nresponse.include_meta()\nresponse.include_files()\nresponse.write(\'\\n\', escape=False)\nresponse.write(\' <!-- this includes jquery.js, calendar.js/.css and web2py.js -->\\n    \', escape=False)\nresponse.write(\'\\n  </head>\\n  <body >\\n      <style  type="text/css">\\n    @media print{\\n        .btn{\\n             display: none;\\n        }\\n        .table {\\n            max-width:100px;\\n            white-space: nowrap\\n}\\n        #noprint { display:none; } \\n      a:link{font:15px "verdana"; color:#8B4513; text-decoration:none;}\\n\\na:hover{font:20px "verdana"; color:black; text-decoration:underline;}\\n    }\\n      </style>\\n    <div class="w2p_flash alert alert-dismissable">\', escape=False)\nresponse.write(response.flash or \'\')\nresponse.write(\'</div>\\n    <!-- Navbar ======================================= -->\\n    <nav class="navbar navbar-light navbar-expand-md bg-faded justify-content-center">\\n        <a href="\', escape=False)\nresponse.write(URL(\'default\', \'index\'))\nresponse.write(\'" class="navbar-brand d-flex w-50 mr-auto"><i class="d-block fa fa-lg fa-home" > Loca\\xc3\\xa7\\xc3\\xa3o Imobili\\xc3\\xa1ria</i></a>\\n       <button class="navbar-toggler" type="button" data-toggle="collapse" data-target="#navbarNavDropdown" aria-controls="navbarNavDropdown" aria-expanded="false" aria-label="Toggle navigation">\\n         <span class="navbar-toggler-icon"></span>\\n       </button>\\n       <div class="navbar-collapse collapse w-100" id="navbarNavDropdown">\\n         <ul class="navbar-nav w-100 justify-content-center">\\n          \', escape=False)\nfor _item in response.menu or []:\n    response.write(\'\\n          \', escape=False)\n    if len(_item)<4 or not _item[3]:\n        response.write(\'\\n          <li class="nav-item \', escape=False)\n        if _item[1]:\n            response.write(\'active\', escape=False)\n            pass\n        response.write(\'">\\n            <a class="nav-link" href="\', escape=False)\n        response.write(_item[2])\n        response.write(\'">\', escape=False)\n        response.write(_item[0])\n        response.write(\'</a>\\n          </li>\\n          \', escape=False)\n    else:\n        response.write(\'\\n          <li class="nav-item dropdown">\\n            <a class="nav-link dropdown-toggle" href="\', escape=False)\n        response.write(_item[2])\n        response.write(\'" data-toggle="dropdown" aria-haspopup="true" aria-expanded="false">\', escape=False)\n        response.write(_item[0])\n        response.write(\'</a>\\n            <div class="dropdown-menu">\\n              \', escape=False)\n        for _subitem in _item[3]:\n            response.write(\'\\n              <a class="dropdown-item" href="\', escape=False)\n            response.write(_subitem[2])\n            response.write(\'">\', escape=False)\n            response.write(_subitem[0])\n            response.write(\'</a>\\n              \', escape=False)\n            pass\n        response.write(\'\\n            </div>\\n          </li>\\n          \', escape=False)\n        pass\n    response.write(\'\\n          \', escape=False)\n    pass\nresponse.write(\'\\n        </ul>\\n         \\n        \', escape=False)\nif \'auth\' in globals():\n    response.write(\'\\n        <ul class="nav navbar-nav ml-auto w-100 justify-content-end">\\n          <li class="nav-item dropdown">\\n            <a class="nav-link dropdown-toggle" href="#" data-toggle="dropdown" aria-haspopup="true" aria-expanded="false">\\n              \', escape=False)\n    if auth.user:\n        response.write(auth.user.first_name)\n    else:\n        response.write(\'LOGIN\', escape=False)\n        pass\n    response.write(\'\\n            </a>\\n            <div class="dropdown-menu dropdown-menu-right">\\n              \', escape=False)\n    if auth.user:\n        response.write(\'\\n              <a class="dropdown-item" href="\', escape=False)\n        response.write(URL(\'default\',\'user/profile\'))\n        response.write(\'">\', escape=False)\n        response.write(T(\'Profile\'))\n        response.write(\'</a>\\n              \', escape=False)\n        if \'change_password\' not in auth.settings.actions_disabled:\n            response.write(\'\\n              <a class="dropdown-item" href="\', escape=False)\n            response.write(URL(\'default\',\'user/change_password\'))\n            response.write(\'">\', escape=False)\n            response.write(T(\'Change Password\'))\n            response.write(\'</a>\\n              \', escape=False)\n            pass\n        response.write(\'\\n              <a class="dropdown-item" href="\', escape=False)\n        response.write(URL(\'default\',\'user/logout\'))\n        response.write(\'">\', escape=False)\n        response.write(T(\'Logout\'))\n        response.write(\'</a>\\n              \', escape=False)\n    else:\n        response.write(\'\\n              <a class="dropdown-item" href="\', escape=False)\n        response.write(URL(\'default\',\'user/login\'))\n        response.write(\'">\', escape=False)\n        response.write(T(\'Login\'))\n        response.write(\'</a>\\n              \', escape=False)\n        if \'register\' not in auth.settings.actions_disabled:\n            response.write(\'\\n              <a class="dropdown-item" href="\', escape=False)\n            response.write(URL(\'default\',\'user/register\'))\n            response.write(\'">\', escape=False)\n            response.write(T(\'Sign up\'))\n            response.write(\'</a>\\n              \', escape=False)\n            pass\n        response.write(\'\\n              \', escape=False)\n        if \'retrieve_password\' not in auth.settings.actions_disabled:\n            response.write(\'\\n              <a class="dropdown-item" href="\', escape=False)\n            response.write(URL(\'default\',\'user/retrieve_password\'))\n            response.write(\'">\', escape=False)\n            response.write(T(\'Lost Password\'))\n            response.write(\'</a>\\n              \', escape=False)\n            pass\n        response.write(\'\\n              \', escape=False)\n        pass\n    response.write(\'\\n            </div>\\n          </li>\\n        </ul>\\n        \', escape=False)\n    pass\nresponse.write(\'\\n        <form>\\n<input type="button" value="Imprimir Pagina" onClick="window.print()"/>\\n</form>\\n      </div>\\n    </nav>\\n\\n    <!-- Masthead ===================================== -->\\n    \', escape=False)\nresponse.write(\'\\n    \', escape=False)\nresponse.write(\'\\n    <!-- Main ========================================= -->\\n    <!-- Begin page content -->\\n    <div class="container-fluid main-container">\\n      \', escape=False)\nresponse.write(\'\\n<link href="https://fonts.googleapis.com/css2?family=Roboto:wght@500;900display=swap" rel="stylesheet">\\n<style type="text/css">\\n            .imp {\\n                font-size: 28px;\\n            }\\n        </style>\\n<a id="noprint" class="text-danger" href="\', escape=False)\nresponse.write(URL(\'acessar_contrato\', args=contrato.id))\nresponse.write(\'"><i class="fa fa-fw fa-1x py-1 fa-angle-double-left text-danger"></i>Voltar</a>\\n\\n\\n<div class="py-2 imp" >\\n    <div class="container">\\n      <div class="row">\\n        <div class="col-md-12"  align="justify" style="font-family: Roboto" >\\n<center><h1>CONTRATO DE LOCA\\xc3\\x87\\xc3\\x83O</h1></center>\\n<br>\\n    <p>Pelo presente instrumento particular, que entre si fazem, de um lado, como o        \\n        <b>LOCADOR: \', escape=False)\nresponse.write(locador.nome)\nresponse.write(\'</b>, inscrito no \\n        \', escape=False)\nif locador.tipo_pessoa==\'F\xc3\x8dSICA\':\n    response.write(\'\\n        <b>CPF: \', escape=False)\n    response.write(locador.cpf)\n    response.write(\'</b>\\n        \', escape=False)\nelse:\n    response.write(\'\\n        <b>CNPJ: \', escape=False)\n    response.write(locador.cpf)\n    response.write(\'</b>\\n        \', escape=False)\n    pass\nresponse.write(\', localizado na \', escape=False)\nresponse.write(locador.lougradouro)\nresponse.write(\', N\\xc3\\x9aMERO \', escape=False)\nresponse.write(locador.numero)\nresponse.write(\', \\n        \', escape=False)\nif len(locador.complemento)>2:\n    response.write(\' \', escape=False)\n    response.write(locador.complemento)\n    response.write(\',  \', escape=False)\n    pass\nresponse.write(\' BAIRRO \', escape=False)\nresponse.write(locador.bairro)\nresponse.write(\', NA CIDADE DE \', escape=False)\nresponse.write(locador.cidade)\nresponse.write(\' \', escape=False)\nresponse.write(locador.uf)\nresponse.write(\', e como <b>LOCAT\\xc3\\x81RIO: \', escape=False)\nresponse.write(locatario.nome)\nresponse.write(\'</b>  ,inscrito no\\n        \', escape=False)\nif locatario.tipo_pessoa==\'F\xc3\x8dSICA\':\n    response.write(\'\\n        <b>CPF: \', escape=False)\n    response.write(locatario.cpf)\n    response.write(\'</b>,\\n         <b>RG: \', escape=False)\n    response.write(locatario.rg)\n    response.write(\'</b>\\n        \', escape=False)\nelse:\n    response.write(\'\\n        <b>CNPJ: \', escape=False)\n    response.write(locatario.cpf)\n    response.write(\'</b>\\n        \', escape=False)\n    pass\nresponse.write(\'\\n        t\\xc3\\xaam entre si justo e acertado o presente <b>CONTRATO DE LOCA\\xc3\\x87\\xc3\\x83O \', escape=False)\nresponse.write(contrato.tipo)\nresponse.write(\'</b>, mediante as cl\\xc3\\xa1usulas e condi\\xc3\\xa7\\xc3\\xb5es seguintes, que mutuamente aceitam, a saber:</p>\\n            <p>&nbsp;&nbsp;&nbsp;&nbsp;&nbsp;<b>PRIMEIRA</b> \\xe2\\x80\\x93 O <b>LOCADOR</b> declara que \\xc3\\xa9 legitimo possuidor de um im\\xc3\\xb3vel localizado na <b>\', escape=False)\nresponse.write(imovel.lougradouro)\nresponse.write(\', N\\xc3\\x9aMERO \', escape=False)\nresponse.write(imovel.numero)\nresponse.write(\', BAIRRO: \', escape=False)\nresponse.write(imovel.bairro)\nresponse.write(\'</b> nesta cidade de <b>\', escape=False)\nresponse.write(imovel.cidade)\nresponse.write(\' \', escape=False)\nresponse.write(imovel.uf)\nresponse.write(\'</b>, devidamente registrado no cart\\xc3\\xb3rio de im\\xc3\\xb3veis e, que se obriga, neste ato, a dar em loca\\xc3\\xa7\\xc3\\xa3o ao <b>LOCAT\\xc3\\x81RIO</b> acima qualificada, mediante as seguintes <b>condi\\xc3\\xa7\\xc3\\xb5es</b>:</p>\\n            <p>&nbsp;&nbsp;&nbsp;&nbsp;&nbsp;<b>SEGUNDA</b> \\xe2\\x80\\x93 O prazo de loca\\xc3\\xa7\\xc3\\xa3o \\xc3\\xa9 de <b>\\n                \', escape=False)\nif contrato.virgencia_meses==6:\n    response.write(\'<b> 6 (SEIS) MESES</b>\\n                \', escape=False)\nelif contrato.virgencia_meses==12:\n    response.write(\'<b> 12 (DOZE) MESES</b>\\n                \', escape=False)\nelif contrato.virgencia_meses==24:\n    response.write(\'<b> 24 (VINTE E QUATRO) MESES</b>\\n                \', escape=False)\nelif contrato.virgencia_meses==36:\n    response.write(\'<b> 36 (TRINTA E SEIS) MESES</b>\\n                \', escape=False)\nelif contrato.virgencia_meses==48:\n    response.write(\'<b> 48 (QUARENTA E OITO) MESES</b>\\n                \', escape=False)\nelif contrato.virgencia_meses==60:\n    response.write(\'<b> 60 (SESSENTA) MESES</b>\\n                \', escape=False)\nelif contrato.virgencia_meses==120:\n    response.write(\'<b> 120 (CENTO E VINTE) MESES</b>\\n                \', escape=False)\n    pass\nresponse.write(\'</b>\\n                , iniciando-se no dia <b>\', escape=False)\nresponse.write(contrato.data_inicial.day)\nresponse.write(\' DE \\n                \', escape=False)\nif contrato.data_inicial.month==1:\n    response.write(\' JANEIRO\\n                \', escape=False)\nelif contrato.data_inicial.month==2:\n    response.write(\' FEVEREIRO\\n                \', escape=False)\nelif contrato.data_inicial.month==3:\n    response.write(\' MAR\\xc3\\x87O\\n                \', escape=False)\nelif contrato.data_inicial.month==4:\n    response.write(\' ABRIL\\n                \', escape=False)\nelif contrato.data_inicial.month==5:\n    response.write(\' MAIO\\n                \', escape=False)\nelif contrato.data_inicial.month==6:\n    response.write(\' JUNHO\\n                \', escape=False)\nelif contrato.data_inicial.month==7:\n    response.write(\' JULHO\\n                \', escape=False)\nelif contrato.data_inicial.month==8:\n    response.write(\' AGOSTO\\n                \', escape=False)\nelif contrato.data_inicial.month==9:\n    response.write(\' SETEMBRO\\n                \', escape=False)\nelif contrato.data_inicial.month==10:\n    response.write(\' OUTUBRO\\n                \', escape=False)\nelif contrato.data_inicial.month==11:\n    response.write(\' NOVEMBRO\\n                \', escape=False)\nelif contrato.data_inicial.month==12:\n    response.write(\' DEZEMBRO\\n                \', escape=False)\n    pass\nresponse.write(\'\\n                DE \', escape=False)\nresponse.write(contrato.data_inicial.year)\nresponse.write(\'</b>, e terminando no dia <b>\', escape=False)\nresponse.write(contrato.data_final.day)\nresponse.write(\' DE \\n                \', escape=False)\nif contrato.data_final.month==1:\n    response.write(\' JANEIRO\\n                \', escape=False)\nelif contrato.data_final.month==2:\n    response.write(\' FEVEREIRO\\n                \', escape=False)\nelif contrato.data_final.month==3:\n    response.write(\' MAR\\xc3\\x87O\\n                \', escape=False)\nelif contrato.data_final.month==4:\n    response.write(\' ABRIL\\n                \', escape=False)\nelif contrato.data_final.month==5:\n    response.write(\' MAIO\\n                \', escape=False)\nelif contrato.data_final.month==6:\n    response.write(\' JUNHO\\n                \', escape=False)\nelif contrato.data_final.month==7:\n    response.write(\' JULHO\\n                \', escape=False)\nelif contrato.data_final.month==8:\n    response.write(\' AGOSTO\\n                \', escape=False)\nelif contrato.data_final.month==9:\n    response.write(\' SETEMBRO\\n                \', escape=False)\nelif contrato.data_final.month==10:\n    response.write(\' OUTUBRO\\n                \', escape=False)\nelif contrato.data_final.month==11:\n    response.write(\' NOVEMBRO\\n                \', escape=False)\nelif contrato.data_final.month==12:\n    response.write(\' DEZEMBRO\\n                \', escape=False)\n    pass\nresponse.write(\'\\n                DE \', escape=False)\nresponse.write(contrato.data_final.year)\nresponse.write(\'</b>, data em que o <b>LOCAT\\xc3\\x81RIO</b> se obriga a restituir o im\\xc3\\xb3vel, ora locado, inteiramente desocupado e em perfeito estado de conserva\\xc3\\xa7\\xc3\\xa3o e de limpeza, com a apresenta\\xc3\\xa7\\xc3\\xa3o do comprovante de quita\\xc3\\xa7\\xc3\\xa3o e do corte de energia e \\xc3\\xa1gua, bem como do pagamento e quita\\xc3\\xa7\\xc3\\xa3o das taxas de \\xc3\\xa1gua e esgoto, ou fazer a renova\\xc3\\xa7\\xc3\\xa3o do contrato vencido.</p>\\n            <p>&nbsp;&nbsp;&nbsp;&nbsp;&nbsp;<b>TERCEIRA</b> \\xe2\\x80\\x93 O aluguel mensal inicia pactuado e mutuamente aceito para os \\n                \', escape=False)\nif contrato.virgencia_meses==6:\n    response.write(\'<b> 6 (SEIS) MESES</b>\\n                \', escape=False)\nelif contrato.virgencia_meses==12:\n    response.write(\'<b> 12 (DOZE) MESES</b>\\n                \', escape=False)\nelif contrato.virgencia_meses==24:\n    response.write(\'<b> 24 (VINTE E QUATRO) MESES</b>\\n                \', escape=False)\nelif contrato.virgencia_meses==36:\n    response.write(\'<b> 36 (TRINTA E SEIS) MESES</b>\\n                \', escape=False)\nelif contrato.virgencia_meses==48:\n    response.write(\'<b> 48 (QUARENTA E OITO) MESES</b>\\n                \', escape=False)\nelif contrato.virgencia_meses==60:\n    response.write(\'<b> 60 (SESSENTA) MESES</b>\\n                \', escape=False)\nelif contrato.virgencia_meses==120:\n    response.write(\'<b> 120 (CENTO E VINTE) MESES</b>\\n                \', escape=False)\n    pass\nresponse.write(\' de <b>R$ \', escape=False)\nresponse.write("{:,}".format(round(contrato.valor,1)).replace(",","."))\nresponse.write(\'0 \', escape=False)\nif len(contrato.valor_ext)>4:\n    response.write(\' (\', escape=False)\n    response.write(contrato.valor_ext)\n    response.write(\')\', escape=False)\n    pass\nresponse.write(\'</b>, que dever\\xc3\\xa1 ser pago na <u>Rua Alencar Peixoto 476 Bairro Centro, Juazeiro do Norte, ou por transfer\\xc3\\xaancia banc\\xc3\\xa1ria na conta: AG: 0032 OP: 01 C/C: 42.038-0 J S L OLIVEIRA, CAIXA ECON\\xc3\\x94MICA FEDERAL</u>, na forma estabelecida no par\\xc3\\xa1grafo primeiro.</p>\\n            \\n            <p>\\n                <b>Par\\xc3\\xa1grafo Primeiro</b> \\xe2\\x80\\x93 Os alugu\\xc3\\xa9is dever\\xc3\\xa3o ser pagos no local indicado na cl\\xc3\\xa1usula anterior at\\xc3\\xa9 o dia <b>\\n                \', escape=False)\nif contrato.dia_vencimento==1:\n    response.write(\'01 (UM)\\n                \', escape=False)\nelif contrato.dia_vencimento==2:\n    response.write(\'02 (DOIS)\\n                \', escape=False)\nelif contrato.dia_vencimento==3:\n    response.write(\'03 (TR\\xc3\\x8aS)\\n                \', escape=False)\nelif contrato.dia_vencimento==4:\n    response.write(\'04 (QUATRO)\\n                \', escape=False)\nelif contrato.dia_vencimento==5:\n    response.write(\'05 (CINCO)\\n                \', escape=False)\nelif contrato.dia_vencimento==6:\n    response.write(\'06 (SEIS)\\n                \', escape=False)\nelif contrato.dia_vencimento==7:\n    response.write(\'07 (SETE)\\n                \', escape=False)\nelif contrato.dia_vencimento==8:\n    response.write(\'08 (OITO)\\n                \', escape=False)\nelif contrato.dia_vencimento==9:\n    response.write(\'09 (NOVE)\\n                \', escape=False)\nelif contrato.dia_vencimento==10:\n    response.write(\'10 (DEZ)\\n                \', escape=False)\nelif contrato.dia_vencimento==11:\n    response.write(\'11 (ONZE)\\n                \', escape=False)\nelif contrato.dia_vencimento==12:\n    response.write(\'12 (DOZE)\\n                \', escape=False)\nelif contrato.dia_vencimento==13:\n    response.write(\'13 (TREZE)\\n                \', escape=False)\nelif contrato.dia_vencimento==14:\n    response.write(\'14 (QUATORZE)\\n                \', escape=False)\nelif contrato.dia_vencimento==15:\n    response.write(\'15 (QUINZE)\\n                \', escape=False)\nelif contrato.dia_vencimento==16:\n    response.write(\'16 (DEZESSEIS)\\n                \', escape=False)\nelif contrato.dia_vencimento==17:\n    response.write(\'17 (DEZESSETE)\\n                \', escape=False)\nelif contrato.dia_vencimento==18:\n    response.write(\'18 (DEZOITO)\\n                \', escape=False)\nelif contrato.dia_vencimento==19:\n    response.write(\'19 (DEZENOVE)\\n                \', escape=False)\nelif contrato.dia_vencimento==20:\n    response.write(\'20 (VINTE)\\n                \', escape=False)\nelif contrato.dia_vencimento==21:\n    response.write(\'21 (VINTE E UM)\\n                \', escape=False)\nelif contrato.dia_vencimento==22:\n    response.write(\'22 (VINTE E DOIS)\\n                \', escape=False)\nelif contrato.dia_vencimento==23:\n    response.write(\'23 (VINTE E TR\\xc3\\x8aS)\\n                \', escape=False)\nelif contrato.dia_vencimento==24:\n    response.write(\'24 (VINTE E QUATRO)\\n                \', escape=False)\nelif contrato.dia_vencimento==25:\n    response.write(\'25 (VINTE E CINCO)\\n                \', escape=False)\nelif contrato.dia_vencimento==26:\n    response.write(\'26 (VINTE E SEIS)\\n                \', escape=False)\nelif contrato.dia_vencimento==27:\n    response.write(\'27 (VINTE E SETE)\\n                \', escape=False)\nelif contrato.dia_vencimento==28:\n    response.write(\'28 (VINTE E OITO)\\n                \', escape=False)\nelif contrato.dia_vencimento==29:\n    response.write(\'29 (VINTE E NOVE)\\n                \', escape=False)\nelif contrato.dia_vencimento==30:\n    response.write(\'30 (TRINTA)\\n                \', escape=False)\nelif contrato.dia_vencimento==31:\n    response.write(\'31 (TRINTA E UM)\\n\\n                \', escape=False)\n    pass\nresponse.write(\'</b> com toler\\xc3\\xa2ncia at\\xc3\\xa9 o dia <b>\\n                \', escape=False)\nif contrato.dia_vencimento==1:\n    response.write(\'01 (UM)\\n                \', escape=False)\nelif contrato.dia_vencimento==2:\n    response.write(\'02 (DOIS)\\n                \', escape=False)\nelif contrato.dia_vencimento==3:\n    response.write(\'03 (TR\\xc3\\x8aS)\\n                \', escape=False)\nelif contrato.dia_vencimento==4:\n    response.write(\'04 (QUATRO)\\n                \', escape=False)\nelif contrato.dia_vencimento==5:\n    response.write(\'05 (CINCO)\\n                \', escape=False)\nelif contrato.dia_vencimento==6:\n    response.write(\'06 (SEIS)\\n                \', escape=False)\nelif contrato.dia_vencimento==7:\n    response.write(\'07 (SETE)\\n                \', escape=False)\nelif contrato.dia_vencimento==8:\n    response.write(\'08 (OITO)\\n                \', escape=False)\nelif contrato.dia_vencimento==9:\n    response.write(\'09 (NOVE)\\n                \', escape=False)\nelif contrato.dia_vencimento==10:\n    response.write(\'10 (DEZ)\\n                \', escape=False)\nelif contrato.dia_vencimento==11:\n    response.write(\'11 (ONZE)\\n                \', escape=False)\nelif contrato.dia_vencimento==12:\n    response.write(\'12 (DOZE)\\n                \', escape=False)\nelif contrato.dia_vencimento==13:\n    response.write(\'13 (TREZE)\\n                \', escape=False)\nelif contrato.dia_vencimento==14:\n    response.write(\'14 (QUATORZE)\\n                \', escape=False)\nelif contrato.dia_vencimento==15:\n    response.write(\'15 (QUINZE)\\n                \', escape=False)\nelif contrato.dia_vencimento==16:\n    response.write(\'16 (DEZESSEIS)\\n                \', escape=False)\nelif contrato.dia_vencimento==17:\n    response.write(\'17 (DEZESSETE)\\n                \', escape=False)\nelif contrato.dia_vencimento==18:\n    response.write(\'18 (DEZOITO)\\n                \', escape=False)\nelif contrato.dia_vencimento==19:\n    response.write(\'19 (DEZENOVE)\\n                \', escape=False)\nelif contrato.dia_vencimento==20:\n    response.write(\'20 (VINTE)\\n                \', escape=False)\nelif contrato.dia_vencimento==21:\n    response.write(\'21 (VINTE E UM)\\n                \', escape=False)\nelif contrato.dia_vencimento==22:\n    response.write(\'22 (VINTE E DOIS)\\n                \', escape=False)\nelif contrato.dia_vencimento==23:\n    response.write(\'23 (VINTE E TR\\xc3\\x8aS)\\n                \', escape=False)\nelif contrato.dia_vencimento==24:\n    response.write(\'24 (VINTE E QUATRO)\\n                \', escape=False)\nelif contrato.dia_vencimento==25:\n    response.write(\'25 (VINTE E CINCO)\\n                \', escape=False)\nelif contrato.dia_vencimento==26:\n    response.write(\'26 (VINTE E SEIS)\\n                \', escape=False)\nelif contrato.dia_vencimento==27:\n    response.write(\'27 (VINTE E SETE)\\n                \', escape=False)\nelif contrato.dia_vencimento==28:\n    response.write(\'28 (VINTE E OITO)\\n                \', escape=False)\nelif contrato.dia_vencimento==29:\n    response.write(\'29 (VINTE E NOVE)\\n                \', escape=False)\nelif contrato.dia_vencimento==30:\n    response.write(\'30 (TRINTA)\\n                \', escape=False)\nelif contrato.dia_vencimento==31:\n    response.write(\'31 (TRINTA E UM)\\n\\n                \', escape=False)\n    pass\nresponse.write(\'</b> o m\\xc3\\xaas subseq\\xc3\\xbcente ao vencimento sem multa, ap\\xc3\\xb3s essa data, somente acrescido de juros de mora, honor\\xc3\\xa1rios advocat\\xc3\\xadcios, mesmo que a cobran\\xc3\\xa7a seja extrajudicial e corre\\xc3\\xa7\\xc3\\xa3o monet\\xc3\\xa1ria, esta \\xc3\\xbaltima hip\\xc3\\xb3tese se o atraso for superior a <b>30 (trinta) dias</b>.\\n            </p>\\n            <p>\\n               <b>Par\\xc3\\xa1grafo Segundo</b> \\xe2\\x80\\x93 Sempre que o pagamento for efetuado por meio de cheque, a divida somente estar\\xc3\\xa1 quitado ap\\xc3\\xb3s o efetivo pagamento do aludido cheque, o n\\xc3\\xa3o pagamento do cheque, por qualquer causa ou motivo, implicar\\xc3\\xa1 automaticamente incid\\xc3\\xaancia\\nDas comina\\xc3\\xa7\\xc3\\xb5es para os casos de inadimpl\\xc3\\xaancia, conforme cl\\xc3\\xa1usula quarta, notadamente a multa contratual, os juros morat\\xc3\\xb3rio convencional monet\\xc3\\xa1rio incidente sobre o valor da obriga\\xc3\\xa7\\xc3\\xa3o considerada n\\xc3\\xa3o paga.\\n\\n            </p>\\n            <p>\\n            <p>&nbsp;&nbsp;&nbsp;&nbsp;&nbsp;<b>QUARTA</b> \\xe2\\x80\\x93 Ocorrendo atraso no pagamento do aluguel, no prazo determinado na cl\\xc3\\xa1usula 3\\xc2\\xaa, ser\\xc3\\xa1 o mesmo acrescido de uma multa de 10% (dez por cento) sobre o valor de presta\\xc3\\xa7\\xc3\\xa3o locat\\xc3\\xadcia mais juros de mora e corre\\xc3\\xa7\\xc3\\xa3o monet\\xc3\\xa1ria, independentemente do procedimento judicial que porventura for adotado, a t\\xc3\\xadtulo de honor\\xc3\\xa1rios administrativos. \\n            </p>\\n            <p>\\n                <p>&nbsp;&nbsp;&nbsp;&nbsp;&nbsp;<b>QUINTA</b> \\xe2\\x80\\x93 O <b>LOCAT\\xc3\\x81RIO</b> se obriga a:\\n            </p>\\n                   <ul>\\n                        <li>\\n                            <b>A)</b> &nbsp;Manter o im\\xc3\\xb3vel no mais rigoroso estado de conserva\\xc3\\xa7\\xc3\\xa3o e limpeza obriga-se ainda, o <b>LOCAT\\xc3\\x81RIO</b> al\\xc3\\xa9m do pagamento de aluguel e satisfazer ao pagamento, por sua conta exclusiva do consumo de \\xc3\\xa1gua, energia el\\xc3\\xa9trica e esgoto, bem como, todos os demais tributos municipais que reca\\xc3\\xadrem sobre o im\\xc3\\xb3vel locado.\\n            </li>\\n                       <li>\\n                          <b> B)</b> &nbsp;Fazer, as suas custas, as despesas que porventura se tornarem necess\\xc3\\xa1rias para conserva\\xc3\\xa7\\xc3\\xa3o das pinturas, portas de a\\xc3\\xa7o, fechaduras, trincos, vidros, torneiras, puxadores, instala\\xc3\\xa7\\xc3\\xb5es el\\xc3\\xa9tricas e sanit\\xc3\\xa1rias, limpeza reparos e desentupimento de encanamento de \\xc3\\xa1gua, esgotos etc. e bem assim a conserva\\xc3\\xa7\\xc3\\xa3o de passeio fronteiri\\xc3\\xa7o, mantendo tudo em perfeito estado de funcionamento todo o material empregado para o bom cumprimento desta cl\\xc3\\xa1usula dever\\xc3\\xa1 ser de qualidade, tipo e medida da existente no im\\xc3\\xb3vel. No caso de pr\\xc3\\xa9dio residencial, com po\\xc3\\xa7o, bomba para \\xc3\\xa1gua e fossas, os respectivos encargos de limpeza, manuten\\xc3\\xa7\\xc3\\xa3o e reparos, ficar\\xc3\\xa3o sempre por conta do <b>LOCAT\\xc3\\x81RIO</b>.\\n                       </li>\\n                       <li>\\n                           <b>C)</b> &nbsp;N\\xc3\\xa3o fazer qualquer instala\\xc3\\xa7\\xc3\\xa3o ou adapta\\xc3\\xa7\\xc3\\xb5es ou benfeitorias, quaisquer que sejam sua natureza, inclusive necess\\xc3\\xa1ria, sem a autoriza\\xc3\\xa7\\xc3\\xa3o do <b>LOCADOR</b>. Estas uma vez feitas incorpora\\xc3\\xa7\\xc3\\xa3o ao im\\xc3\\xb3vel e n\\xc3\\xa3o ser\\xc3\\xa3o indenizadas e nem gerar\\xc3\\xa3o direito de reten\\xc3\\xa7\\xc3\\xa3o.\\n                       </li>\\n                       <li>\\n                           <b>D)</b> &nbsp;N\\xc3\\xa3o p\\xc3\\xb4r vitrinas, an\\xc3\\xbancios, ou d\\xc3\\xadsticos na parte do pr\\xc3\\xa9dio sen\\xc3\\xa3o nos lugares para isso determinado e com as dimens\\xc3\\xb5es e formatos aprovados, previamente pelo <b>LOCADOR</b>.</li>\\n                       <li>\\n                           <b>E)</b>\\tO <b>LOCAT\\xc3\\x81RIO</b> declara haver recebido o im\\xc3\\xb3vel ora locado em perfeito estado de conserva\\xc3\\xa7\\xc3\\xa3o e limpeza e funcionamento, assim como se obriga e devolve-lo na mais perfeita ordem e no mesmo estado de conserva\\xc3\\xa7\\xc3\\xa3o, limpeza funcionamento de modo que possa ser realugado imediatamente, sem a necessidade de qualquer reparo.E precisando de algum concerto e pintura no apartamento o locat\\xc3\\xa1rio contratar\\xc3\\xa1 a pessoa indicada pelo locador.\\n<br><br>\\n                           (Junto com o presente contrato, assim o <b>LOCAT\\xc3\\x81RIO</b> o Relat\\xc3\\xb3rio de Vistoria), sobre a situa\\xc3\\xa7\\xc3\\xa3o do im\\xc3\\xb3vel que fica fazendo parte deste instrumento.\\n\\n                       </li>\\n            </ul>\\n<p>&nbsp;&nbsp;&nbsp;&nbsp;&nbsp;<b>SEXTA</b> \\xe2\\x80\\x93 A presente loca\\xc3\\xa7\\xc3\\xa3o n\\xc3\\xa3o poder\\xc3\\xa1 ser cedida ou transferida, no todo ou parte, sem expresso consentimento, por escrito do <B>LOCADOR</B>. Se, entretanto o <B>LOCAT\\xc3\\x81RIO</B> notificar o <B>LOCADOR</B> da ocorr\\xc3\\xaancia de uma das hip\\xc3\\xb3teses previstas nesta cl\\xc3\\xa1usula fica dessa j\\xc3\\xa1 ciente de que seu eventual sil\\xc3\\xaancio in\\xc3\\xa9rcia, n\\xc3\\xa3o traduzir\\xc3\\xa1 consentimento t\\xc3\\xa1cito.\\n\\n  </p><p>&nbsp;&nbsp;&nbsp;&nbsp;&nbsp;<b>S\\xc3\\x89TIMA</b> - O im\\xc3\\xb3vel, ora locado, destina-se a aluguel <b>\', escape=False)\nresponse.write(contrato.tipo)\nresponse.write(\'</b>, n\\xc3\\xa3o podendo sua destina\\xc3\\xa7\\xc3\\xa3o ou atividades ser alteradas sem o expresso consentimento do <B>LOCADOR</B> ou seu representante legal.\\n\\n\\t        </p><p>&nbsp;&nbsp;&nbsp;&nbsp;&nbsp;<b>OITAVA</b> \\xe2\\x80\\x93 No caso de desapropria\\xc3\\xa7\\xc3\\xa3o do im\\xc3\\xb3vel ora locado, ficar\\xc3\\xa1 o <B>LOCADOR</B> desobrigado por todas as cl\\xc3\\xa1usulas deste contrato, ressalvando o <B>LOCAT\\xc3\\x81RIO</B> t\\xc3\\xa3o somente faculdade de haver do poder desapropriaste e indeniza\\xc3\\xa7\\xc3\\xa3o que tiver direito.\\n\\n\\t       </p><p>&nbsp;&nbsp;&nbsp;&nbsp;&nbsp;<b>NONA</b> \\xe2\\x80\\x93 Nenhuma intima\\xc3\\xa7\\xc3\\xa3o do servi\\xc3\\xa7o sanit\\xc3\\xa1rio ser\\xc3\\xa1 motivo para o <B>LOCAT\\xc3\\x81RIO</B> abandonar o im\\xc3\\xb3vel ou pedir a rescis\\xc3\\xa3o deste contrato, salvo precedendo vistoria judicial que apure estar a constru\\xc3\\xa7\\xc3\\xa3o em amea\\xc3\\xa7a de ru\\xc3\\xadna.\\n\\n  </p><p>&nbsp;&nbsp;&nbsp;&nbsp;&nbsp;<b>D\\xc3\\x89CIMA</b> \\xe2\\x80\\x93 Todas as obriga\\xc3\\xa7\\xc3\\xb5es oriundas do presente verter-se-\\xc3\\xa3o independente de qualquer interpela\\xc3\\xa7\\xc3\\xa3o judicial ou extrajudicial.\\n\\n    </p><p>&nbsp;&nbsp;&nbsp;&nbsp;&nbsp;<b>D\\xc3\\x89CIMA PRIMEIRA</b> \\xe2\\x80\\x93 Se o <b>LOCAT\\xc3\\x81RIO</b>, usando da faculdade que lhe confere o artigo 4\\xc2\\xba da lei n\\xc2\\xba 8.245/91, devolver o im\\xc3\\xb3vel locado antes do vencimento do prazo ajustado na cl\\xc3\\xa1usula primeira, ou der causa a rescis\\xc3\\xa3o deste contrato pagar\\xc3\\xa1 ao <B>LOCADOR</B> a multa compensat\\xc3\\xb3ria de 03 (tr\\xc3\\xaas) meses, a ser cobrada em a\\xc3\\xa7\\xc3\\xa3o de execu\\xc3\\xa7\\xc3\\xa3o, que em qualquer hip\\xc3\\xb3tese, ser\\xc3\\xa1 sempre devida por inteiro. \\n\\n        </p><p>&nbsp;&nbsp;&nbsp;&nbsp;&nbsp;<b>D\\xc3\\x89CIMA SEGUNDA</b> \\xe2\\x80\\x93 Permanecendo o <B>LOCAT\\xc3\\x81RIO</B> no im\\xc3\\xb3vel, ap\\xc3\\xb3s escoado o prazo para a desocupa\\xc3\\xa7\\xc3\\xa3o volunt\\xc3\\xa1ria nos casos de den\\xc3\\xbancia condicionada, pagar\\xc3\\xa1 ele o aluguel pena que vier a ser arbitrado na notifica\\xc3\\xa7\\xc3\\xa3o premonit\\xc3\\xb3ria na forma do que disp\\xc3\\xb5e o artigo 575, do C\\xc3\\xb3digo Civil Brasileiro.\\n\\n</p><p>&nbsp;&nbsp;&nbsp;&nbsp;&nbsp;<b>D\\xc3\\x89CIMA TERCEIRA</b> \\xe2\\x80\\x93 Ocorrendo a\\xc3\\xa7\\xc3\\xb5es de despeje ou qualquer outra medida judicial que o <B>LOCADOR</B> venha a ter ajuizar em face do <B>LOCAT\\xc3\\x81RIO</B> ser\\xc3\\xa1 competente o Foro de Juazeiro do Norte, Estado do Cear\\xc3\\xa1, que \\xc3\\xa9 o da situa\\xc3\\xa7\\xc3\\xa3o do im\\xc3\\xb3vel, com a expressa ren\\xc3\\xbancia de qualquer outro, por mais privilegiado que seja, para dirimir as quest\\xc3\\xb5es resultantes da execu\\xc3\\xa7\\xc3\\xa3o do presente contrato, ficando a cargo do <B>LOCAT\\xc3\\x81RIO</B> os honor\\xc3\\xa1rios de advogado do <B>LOCADOR</B> que ser\\xc3\\xa1 de 20% sobre o valor da causa, assim como pagamento do principal acrescido de corre\\xc3\\xa7\\xc3\\xa3o monet\\xc3\\xa1ria, multa, juros e todas as despesas judiciais.\\n\\n\\t</p><p>&nbsp;&nbsp;&nbsp;&nbsp;&nbsp;<b>D\\xc3\\x89CIMA QUARTA</b> \\xe2\\x80\\x93 Ocorrem por conta do <B>LOCAT\\xc3\\x81RIO</B> todas as despesas resultantes do presente contrato, inclusive as de registro e taxas de honor\\xc3\\xa1rios administrativos.\\n\\n\\t</p><p>&nbsp;&nbsp;&nbsp;&nbsp;&nbsp;<b>D\\xc3\\x89CIMA QUINTA</b> \\xe2\\x80\\x93 O <B>LOCADOR</B> poder\\xc3\\xa1, em qualquer tempo quando julgar conveniente, vistoriar o im\\xc3\\xb3vel locado, por si ou pessoa de sua inteira confian\\xc3\\xa7a, a fim de verificar o seu estado de conserva\\xc3\\xa7\\xc3\\xa3o.\\n\\n\\t</p><p>&nbsp;&nbsp;&nbsp;&nbsp;&nbsp;<b>D\\xc3\\x89CIMA SEXTA</b> \\xe2\\x80\\x93 Em caso de inc\\xc3\\xaandio ou qualquer outra calamidade, por culpa do <B>LOCAT\\xc3\\x81RIO</B>, responder\\xc3\\xa1 este, pelos danos f\\xc3\\xadsicos do im\\xc3\\xb3vel, indenizando o <B>LOCADOR</B> dos preju\\xc3\\xadzos causados. Caso em que, o inc\\xc3\\xaandio ou calamidade, tenha sido causado por causa fortuito ou for\\xc3\\xa7a maior, ficar\\xc3\\xa1 o <b>LOCAT\\xc3\\x81RIO</b> obrigado a fazer a entrega imediata do im\\xc3\\xb3vel locado para execu\\xc3\\xa7\\xc3\\xa3o das obras necess\\xc3\\xa1rias.\\n\\n\\t</p><p>&nbsp;&nbsp;&nbsp;&nbsp;&nbsp;<b>D\\xc3\\x89CIMA S\\xc3\\x89TIMA</b> \\xe2\\x80\\x93 No caso de A\\xc3\\x87\\xc3\\x83O DE DESPEJO ou qualquer outra medida judicial intentada pelo <B>LOCADOR</B> ou seu PROCURADOR, responsabilize-se o <B>LOCAT\\xc3\\x81RIO</B> pelas custas judiciais e honor\\xc3\\xa1rios do <B>LOCADOR</B> ou PROCURADOR, a que vier a ser condenado o <B>LOCAT\\xc3\\x81RIO</B>, assim como, em caso de COBRAN\\xc3\\x87A JUDICIAL, pelo principal acrescido dos juros de mora e da corre\\xc3\\xa7\\xc3\\xa3o monet\\xc3\\xa1ria.\\n\\n\\t</p><p>&nbsp;&nbsp;&nbsp;&nbsp;&nbsp;<b>D\\xc3\\x89CIMA OITAVA</b> \\xe2\\x80\\x93 No caso de morte, fal\\xc3\\xaancia, insolv\\xc3\\xaancia ou mudan\\xc3\\xa7a de domicilio dos fiadores, o <B>LOCAT\\xc3\\x81RIO</B> se obriga no prazo de 30 (trinta) dias, a dar substituto id\\xc3\\xb4neo, a ju\\xc3\\xadzo do <B>LOCADOR</B>.\\n\\n\\t</p><p>&nbsp;&nbsp;&nbsp;&nbsp;&nbsp;<b>D\\xc3\\x89CIMA NONA</b> \\xe2\\x80\\x93 Correr\\xc3\\xa1 por conta exclusiva do <B>LOCAT\\xc3\\x81RIO</B> todos os impostos ou taxas que incidirem ou venham incidir sobre o im\\xc3\\xb3vel locado, objeto deste contrato, bem como nas despesas e encargos mensais do pr\\xc3\\xa9dio, entendidas estas como as gerais de conserva\\xc3\\xa7\\xc3\\xa3o e manuten\\xc3\\xa7\\xc3\\xa3o, inclu\\xc3\\xaddas, entre outras, as relativas ao consumo de \\xc3\\xa1gua, luz, taxa sanit\\xc3\\xa1ria., devendo ser pagos diretamente aos \\xc3\\xb3rg\\xc3\\xa3os arrecadadores.\\n\\n\\t</p><p>&nbsp;&nbsp;&nbsp;&nbsp;&nbsp;<b>VIG\\xc3\\x89SIMA</b> \\xe2\\x80\\x93 A diferen\\xc3\\xa7a de impostos, multas ou acr\\xc3\\xa9scimos a que der causa pela reten\\xc3\\xa7\\xc3\\xa3o dos avisos ou das notifica\\xc3\\xa7\\xc3\\xb5es, ser\\xc3\\xa1 paga pelo <B>LOCAT\\xc3\\x81RIO</B>.\\n\\n\\t         </p><p>&nbsp;&nbsp;&nbsp;&nbsp;&nbsp;<b>VIG\\xc3\\x89SIMA PRIMEIRA</b> \\xe2\\x80\\x93 Obriga-se o <B>LOCAT\\xc3\\x81RIO</B>, sob pena de infra\\xc3\\xa7\\xc3\\xa3o contratual, a fazer chegar \\xc3\\xa0s m\\xc3\\xa3os do <B>LOCADOR</B> ou de seu PROCURADOR, todos os avisos de imposto predial, taxas (devidamente quitadas), notifica\\xc3\\xa7\\xc3\\xb5es, intima\\xc3\\xa7\\xc3\\xb5es etc.\\n.  \\n</p><p>&nbsp;&nbsp;&nbsp;&nbsp;&nbsp;<b>VIG\\xc3\\x89SIMA SEGUNDA</b> - O ALUGUEL PACTUADO NA CL\\xc3\\x81SULA 3\\xc2\\xaa deste contrato ser\\xc3\\xa1 reajustado <b>ANUALMENTE</b> com aumento conforme a majora\\xc3\\xa7\\xc3\\xa3o (mercado) mais varia\\xc3\\xa7\\xc3\\xa3o de IGP-DI, FGV, INCC/FVG, IPC-DI qual dessas varia\\xc3\\xa7\\xc3\\xb5es apresentarem maior \\xc3\\xadndice, ou ser\\xc3\\xa1 renovado mediante livre negocia\\xc3\\xa7\\xc3\\xa3o entre as partes.\\n\\n\\t</p><p>&nbsp;&nbsp;&nbsp;&nbsp;&nbsp;<b>VIG\\xc3\\x89SIMA TERCEIRO</b> - O <B>LOCAT\\xc3\\x81RIO</B> obriga-se, no ato de devolu\\xc3\\xa7\\xc3\\xa3o do im\\xc3\\xb3vel a apresentar as certid\\xc3\\xb5es negativas de consumo de \\xc3\\xa1gua e energia el\\xc3\\xa9trica.\\n\\n\\t</p><p>Findo o presente contrato ou sendo a loca\\xc3\\xa7\\xc3\\xa3o do <B>LOCAT\\xc3\\x81RIO</B> continuar na posse do im\\xc3\\xb3vel locado a partir do dia seguinte ao final do contrato, considerar-se-\\xc3\\xa1 renovado o contrato em todos os seus termos e garantias, inclusive o fiador, e o aluguel ser\\xc3\\xa1 majorado na forma e nos prazos estabelecidos.\\n\\n\\t</p><p>&nbsp;&nbsp;&nbsp;&nbsp;&nbsp;<b>VIG\\xc3\\x89SIMA QUARTO</b> \\xe2\\x80\\x93 Finda, extinta ou rescindida a loca\\xc3\\xa7\\xc3\\xa3o por qualquer motivo, obriga-se o <B>LOCAT\\xc3\\x81RIO</B> a devolver as chaves do im\\xc3\\xb3vel, perfeitamente pintado, limpo e encerado, completo de chaves, ferragens, vidros, lou\\xc3\\xa7as sanit\\xc3\\xa1rias, instala\\xc3\\xa7\\xc3\\xb5es hidr\\xc3\\xa1ulicas e el\\xc3\\xa9tricas, sem despesas para o <B>LOCADOR</B>, nos escrit\\xc3\\xb3rios da Administradora ou aonde vier a ser designado pelo <B>LOCADOR</B>. Nessa oportunidade, ser\\xc3\\xa1 o im\\xc3\\xb3vel vistoriado por pessoa de confian\\xc3\\xa7a do <B>LOCADOR</B> ou da Administradora a fim de confirmar se o im\\xc3\\xb3vel se encontra nas condi\\xc3\\xa7\\xc3\\xb5es exigidas, ficando o <B>LOCAT\\xc3\\x81RIO</B> obrigado a pagar as indeniza\\xc3\\xa7\\xc3\\xb5es pelos danos que forem verificados p\\xc3\\xb3 culpa direta ou indireta ou ainda, pelo simples desgaste do uso.\\n\\n\\t</p><p>Caso n\\xc3\\xa3o seja feita a liquida\\xc3\\xa7\\xc3\\xa3o na oportunidade fica garantido ao <B>LOCADOR</B> o direito de n\\xc3\\xa3o receber as chaves do im\\xc3\\xb3vel para fins de extin\\xc3\\xa7\\xc3\\xa3o da loca\\xc3\\xa7\\xc3\\xa3o, continuando a vigorar as cl\\xc3\\xa1usulas contratuais at\\xc3\\xa9 que seja recompostos o im\\xc3\\xb3vel ressalvando o direito de <B>LOCADOR</B> de optar pela vistoria judicial com arbitramento o <B>LOCAT\\xc3\\x81RIO</B> com todas as despesas decorrentes, inclusive pelo aluguel e demais encargos at\\xc3\\xa9 a efetiva libera\\xc3\\xa7\\xc3\\xa3o do im\\xc3\\xb3vel, Por outro lado, o <b>LOCAT\\xc3\\x81RIO</b> se obriga a provar, ao devolver o im\\xc3\\xb3vel, que o mesmo se encontra em perfeitas condi\\xc3\\xa7\\xc3\\xb5es de habitabilidade. \\n\\n</p><p>N\\xc3\\xa3o fazendo tal comprova\\xc3\\xa7\\xc3\\xa3o autoriza o <B>LOCADOR</B> a executar as obras necess\\xc3\\xa1rias e reparos, fazendo a cobran\\xc3\\xa7a executiva dele <b>LOCAT\\xc3\\x81RIO</b>.\\n \\n            </p><p>&nbsp;&nbsp;&nbsp;&nbsp;&nbsp;<b>VIG\\xc3\\x89SIMA QUINTA</b> - Ao t\\xc3\\xa9rmino do contrato, caso o mesmo n\\xc3\\xa3o queira renovar, o <b>LOCAT\\xc3\\x81RIO</b> dever\\xc3\\xa1 entregar o im\\xc3\\xb3vel limpo, pintado em perfeito estado, e as contas de Enel e Cagece devidamente em dias com pedido de cortes. Caso n\\xc3\\xa3o cumpra o prometido, deixando o im\\xc3\\xb3vel sujo e contas pendentes, ser\\xc3\\xa1 negativado ap\\xc3\\xb3s 10 dias do descumprimento da clausula.\\n\\n</p>\\n\\n\', escape=False)\nif contrato.avalista!=51:\n    response.write(\'\\n            <h1>\\n                Apareceu Fiador\\n            </h1>\\n\\n<p>Findo o presente contrato ou sendo a loca\\xc3\\xa7\\xc3\\xa3o do  <b>LOCAT\\xc3\\x80RIO</b>.  continuar na posse do im\\xc3\\xb3vel locado a partir do dia seguinte ao final do contrato, considerar-se-\\xc3\\xa1 renovado o contrato em todos os seus termos e garantias, inclusive o fiador, e o aluguel ser\\xc3\\xa1 majorado na forma e nos prazos estabelecidos. </p>\\n\\n\\t<p>&nbsp;&nbsp;&nbsp;&nbsp;&nbsp;<b>VIG\\xc3\\x89SIMA-SEXTO </b>\\xe2\\x80\\x93 \\xe2\\x80\\x93 Face \\xc3\\xa0 disposi\\xc3\\xa7\\xc3\\xa3o do artigo 22, VII combinado com o art. 25 da Lei 8.245/91, e para prevenir a responsabilidade dela decorrente, o  <b>LOCAT\\xc3\\x80RIO</b>.  autoriza expressamente o <b>LOCADOR</b> a cobrar, juntamente com o aluguel mensal, o valor do Imposto Predial e Territorial Urbano \\xe2\\x80\\x93 IPTU do im\\xc3\\xb3vel locado dividido em duod\\xc3\\xa9cimos. </p>\\n\\n            <p>&nbsp;&nbsp;&nbsp;&nbsp;&nbsp;<b>VIG\\xc3\\x89SIMA\\xe2\\x80\\x93 S\\xc3\\x89TIMO  </b>\\xe2\\x80\\x93 Finda, extinta ou rescindida a loca\\xc3\\xa7\\xc3\\xa3o por qualquer motivo, obriga-se o <b>LOCAT\\xc3\\x81RIO</b> a devolver as chaves do im\\xc3\\xb3vel, perfeitamente pintado, limpo e encerado, completo de chaves, ferragens, vidros, lou\\xc3\\xa7as sanit\\xc3\\xa1rias, instala\\xc3\\xa7\\xc3\\xb5es hidr\\xc3\\xa1ulicas e el\\xc3\\xa9tricas, sem despesas para o <b>LOCADOR</b>, nos escrit\\xc3\\xb3rios da Administradora ou aonde vier a ser  designado pelo <b>LOCADOR</b>. Nessa oportunidade, ser\\xc3\\xa1 o im\\xc3\\xb3vel vistoriado por pessoa de confian\\xc3\\xa7a do <b>LOCADOR</b> ou da Administradora a fim de confirmar se o im\\xc3\\xb3vel se encontra nas condi\\xc3\\xa7\\xc3\\xb5es exigidas, ficando o <b>LOCAT\\xc3\\x81RIO</b> obrigado a pagar as indeniza\\xc3\\xa7\\xc3\\xb5es pelos danos que forem verificados p\\xc3\\xb3 culpa direta ou indireta ou ainda, pelo simples desgaste do uso. </p>\\n\\n            <p>Caso n\\xc3\\xa3o seja feita a liquida\\xc3\\xa7\\xc3\\xa3o na oportunidade fica garantido ao <b>LOCADOR</b> o direito de n\\xc3\\xa3o receber as chaves do im\\xc3\\xb3vel para fins de extin\\xc3\\xa7\\xc3\\xa3o da loca\\xc3\\xa7\\xc3\\xa3o, continuando a vigorar as cl\\xc3\\xa1usulas contratuais at\\xc3\\xa9 que seja recompostos o im\\xc3\\xb3vel ressalvando o direito de <b>LOCADOR</b> de optar pela vistoria judicial com arbitramento o <b>LOCAT\\xc3\\x81RIO</b> com todas as despesas decorrentes, inclusive pelo aluguel e demais encargos at\\xc3\\xa9 a efetiva libera\\xc3\\xa7\\xc3\\xa3o do im\\xc3\\xb3vel, Por outro  lado, o <b>LOCAT\\xc3\\x81RIO</b> se obriga a provar, ao devolver o im\\xc3\\xb3vel, que o mesmo se encontra em perfeitas condi\\xc3\\xa7\\xc3\\xb5es de habitabilidade. </p>\\n\\n            <p>N\\xc3\\xa3o fazendo tal comprova\\xc3\\xa7\\xc3\\xa3o autoriza o <b>LOCADOR</b> a executar as obras necess\\xc3\\xa1rias e reparos, fazendo a cobran\\xc3\\xa7a executiva dele <b>LOCAT\\xc3\\x80RIO</b>. </p>\\n\\n<p>Abaixo, assinam tamb\\xc3\\xa9m o presente contrato como fiador e principal pagador, solidariamente com o <b>LOCAT\\xc3\\x81RIO</b> por todas as obriga\\xc3\\xa7\\xc3\\xb5es neste exaradas, cuja responsabilidade, entretanto, perdurar\\xc3\\xa1 at\\xc3\\xa9 a entrega real e efetiva das chaves do im\\xc3\\xb3vel locado, especialmente quanto ao pagamento do aluguel mensal, <b>AO SENHOR(A): \', escape=False)\n    response.write(contrato.avalista.nome)\n    response.write(\', \', escape=False)\n    if contrato.avalista.tipo_pessoa=="F\xc3\x8dSICA":\n        response.write(\' CPF: \', escape=False)\n        response.write(contrato.avalista.cpf)\n        response.write(\',  RG: \', escape=False)\n        response.write(contrato.avalista.rg)\n        response.write(\' \', escape=False)\n    else:\n        response.write(\' CNPJ: \', escape=False)\n        response.write(contrato.avalista.cpf)\n        response.write(\' \', escape=False)\n        pass\n    response.write(\', residente na  \', escape=False)\n    response.write(contrato.avalista.lougradouro)\n    response.write(\' , N\\xc2\\xb0 \', escape=False)\n    response.write(contrato.avalista.numero)\n    response.write(\' BAIRRO: \', escape=False)\n    response.write(contrato.avalista.bairro)\n    response.write(\' , \', escape=False)\n    response.write(contrato.avalista.cidade)\n    response.write(contrato.avalista.uf)\n    response.write(\',\', escape=False)\n    if len(contrato.avalista.TELEFONE)>10:\n        response.write(\'  TELEFONE \', escape=False)\n        response.write(contrato.avalista.TELEFONE)\n        pass\n    response.write(\'</b>,  FIADOR declara, expressamente que a sua responsabilidade perdurar\\xc3\\xa1 at\\xc3\\xa9 a entrega  das chaves, renunciando, \\xc3\\xa0 faculdade contida no art. 835 do c\\xc3\\xb3digo civil.As partes contratantes elegem o foro da situa\\xc3\\xa7\\xc3\\xa3o do im\\xc3\\xb3vel, qualquer que seja o seu domic\\xc3\\xadlio. </p>\\n\\n\\n\\n\\n\', escape=False)\n    pass\nresponse.write(\'\\n<p>E por estarem justos e contratados, assinam o presente instrumento em 02 (duas vias) de igual teor, na presen\\xc3\\xa7a de testemunhas que igualmente abaixo assinam: </p>\\n            <br>\\n            <br>\\n<center>\\n    <h4>\\n        <b>\\n      \', escape=False)\nresponse.write(contrato.local_contrato)\nresponse.write(\'  DE \', escape=False)\nresponse.write(contrato.data_contrato.day)\nresponse.write(\' DE \\n                \', escape=False)\nif contrato.data_contrato.month==1:\n    response.write(\' JANEIRO\\n                \', escape=False)\nelif contrato.data_contrato.month==2:\n    response.write(\' FEVEREIRO\\n                \', escape=False)\nelif contrato.data_contrato.month==3:\n    response.write(\' MAR\\xc3\\x87O\\n                \', escape=False)\nelif contrato.data_contrato.month==4:\n    response.write(\' ABRIL\\n                \', escape=False)\nelif contrato.data_contrato.month==5:\n    response.write(\' MAIO\\n                \', escape=False)\nelif contrato.data_contrato.month==6:\n    response.write(\' JUNHO\\n                \', escape=False)\nelif contrato.data_contrato.month==7:\n    response.write(\' JULHO\\n                \', escape=False)\nelif contrato.data_contrato.month==8:\n    response.write(\' AGOSTO\\n                \', escape=False)\nelif contrato.data_contrato.month==9:\n    response.write(\' SETEMBRO\\n                \', escape=False)\nelif contrato.data_contrato.month==10:\n    response.write(\' OUTUBRO\\n                \', escape=False)\nelif contrato.data_contrato.month==11:\n    response.write(\' NOVEMBRO\\n                \', escape=False)\nelif contrato.data_contrato.month==12:\n    response.write(\' DEZEMBRO\\n                \', escape=False)\n    pass\nresponse.write(\'\\n                DE \', escape=False)\nresponse.write(contrato.data_contrato.year)\nresponse.write(\'\\n        </b>\\n    </h4>\\n</center>\\n          </div></div></div></div>\\n\', escape=False)\nresponse.write(\'\\n      \', escape=False)\nresponse.write(response.toolbar() if response.show_toolbar else \'\')\nresponse.write(\'\\n    </div>\\n\\n    \', escape=False)\nresponse.write(\' <!-- this is default footer -->\\n    <footer id="noprint" class="footer container-fluid">\\n      <div class="row">\\n        <div class="col-md-12">\\n          <div class="copyright pull-left">\', escape=False)\nresponse.write(T(\'Copyright\'))\nresponse.write(\' &#169; \', escape=False)\nresponse.write(request.now.year)\nresponse.write(\'</div>\\n          <div id="poweredBy" class="pull-right">\\n                        <i class="fa fa-whatsapp" aria-hidden="true"></i><a href="#">(88)98112-6816</a>\\n          </div>\\n        </div>\\n      </div>\\n    </footer>\\n  <footer class="footer container-fluid d-none d-print-block">\\n        <div class="row">\\n            <div class="col-md-12">\\n                <div class="copyright pull-left">Suporte - (88)98112-6816</div>\\n                <div id="poweredBy" class="pull-right">\\n                    \', escape=False)\nif auth.user:\n    response.write(auth.user.first_name)\n    response.write(\' \', escape=False)\n    response.write(auth.user.last_name)\n    response.write(\'\\n                    \', escape=False)\nelse:\n    response.write(\'Loca\\xc3\\xa7\\xc3\\xa3o Imobili\\xc3\\xa1ria\\n                    \', escape=False)\n    pass\nresponse.write(\'\\n                </div>\\n            </div>\\n        </div>\\n    </footer>\\n    \', escape=False)\nresponse.write(\'\\n    <!-- The javascript =============================== -->\\n    <script src="\', escape=False)\nresponse.write(URL(\'static\',\'js/bootstrap.bundle.min.js\'))\nresponse.write(\'"></script>\\n    <script src="\', escape=False)\nresponse.write(URL(\'static\',\'js/web2py-bootstrap4.js\'))\nresponse.write(\'"></script>\\n    \', escape=False)\nresponse.write(\'\\n    \', escape=False)\nif response.google_analytics_id:\n    response.write(\'\\n    <!-- Analytics ==================================== -->\\n    <script src="\', escape=False)\n    response.write(URL(\'static\',\'js/analytics.min.js\'))\n    response.write(\'"></script>\\n    <script type="text/javascript">\\n      analytics.initialize({\\n      \\\'Google Analytics\\\':{trackingId:\\\'\', escape=False)\n    response.write(response.google_analytics_id)\n    response.write("\'}\\n      });\\n    </script>\\n    ", escape=False)\n    pass\nresponse.write(\'\\n  </body>\\n</html>\\n\', escape=False)'
p7
sS'snapshot'
p8
(dp9
S'exception'
p10
(dp11
S'__getslice__'
p12
S"<method-wrapper '__getslice__' of exceptions.TypeError object>"
p13
sS'__str__'
p14
S"<method-wrapper '__str__' of exceptions.TypeError object>"
p15
sS'__reduce__'
p16
S'<built-in method __reduce__ of exceptions.TypeError object>'
p17
sS'__dict__'
p18
S'{}'
p19
sS'message'
p20
S'"object of type \'NoneType\' has no len()"'
p21
sS'__sizeof__'
p22
S'<built-in method __sizeof__ of exceptions.TypeError object>'
p23
sS'__init__'
p24
S"<method-wrapper '__init__' of exceptions.TypeError object>"
p25
sS'__setattr__'
p26
S"<method-wrapper '__setattr__' of exceptions.TypeError object>"
p27
sS'__reduce_ex__'
p28
S'<built-in method __reduce_ex__ of exceptions.TypeError object>'
p29
sS'__new__'
p30
S'<built-in method __new__ of type object>'
p31
sS'__format__'
p32
S'<built-in method __format__ of exceptions.TypeError object>'
p33
sS'__class__'
p34
S"<type 'exceptions.TypeError'>"
p35
sS'__doc__'
p36
S"'Inappropriate argument type.'"
p37
sS'__getitem__'
p38
S"<method-wrapper '__getitem__' of exceptions.TypeError object>"
p39
sS'__setstate__'
p40
S'<built-in method __setstate__ of exceptions.TypeError object>'
p41
sS'__getattribute__'
p42
S"<method-wrapper '__getattribute__' of exceptions.TypeError object>"
p43
sS'args'
p44
S'("object of type \'NoneType\' has no len()",)'
p45
sS'__subclasshook__'
p46
S'<built-in method __subclasshook__ of type object>'
p47
sS'__unicode__'
p48
S'<built-in method __unicode__ of exceptions.TypeError object>'
p49
sS'__delattr__'
p50
S"<method-wrapper '__delattr__' of exceptions.TypeError object>"
p51
sS'__repr__'
p52
S"<method-wrapper '__repr__' of exceptions.TypeError object>"
p53
sS'__hash__'
p54
S"<method-wrapper '__hash__' of exceptions.TypeError object>"
p55
ssS'evalue'
p56
S"object of type 'NoneType' has no len()"
p57
sS'request'
p58
cgluon.html
XML_unpickle
p59
(S's\xa2`\x00\x00<div><table><tr><td style="font-weight:bold;vertical-align:top;">ajax</td><td style="vertical-align:top;">:</td><td><div>False</div></td></tr><tr><td style="font-weight:bold;vertical-align:top;">application</td><td style="vertical-align:top;">:</td><td><div>localfs</div></td></tr><tr><td style="font-weight:bold;vertical-align:top;">args</td><td style="vertical-align:top;">:</td><td><div><table><tr><td><div>24</div></td></tr></table></div></td></tr><tr><td style="font-weight:bold;vertical-align:top;">cid</td><td style="vertical-align:top;">:</td><td><div>None</div></td></tr><tr><td style="font-weight:bold;vertical-align:top;">client</td><td style="vertical-align:top;">:</td><td><div>177.37.231.221</div></td></tr><tr><td style="font-weight:bold;vertical-align:top;">controller</td><td style="vertical-align:top;">:</td><td><div>contrato</div></td></tr><tr><td style="font-weight:bold;vertical-align:top;">cookies</td><td style="vertical-align:top;">:</td><td><div><table><tr><td style="font-weight:bold;vertical-align:top;">session_id_admin</td><td style="vertical-align:top;">:</td><td><div>177.37.231.221-74a8e585-d780-4a3b-b931-d853da0fbb77<table><tr><td style="font-weight:bold;vertical-align:top;">comment</td><td style="vertical-align:top;">:</td><td><div></div></td></tr><tr><td style="font-weight:bold;vertical-align:top;">domain</td><td style="vertical-align:top;">:</td><td><div></div></td></tr><tr><td style="font-weight:bold;vertical-align:top;">expires</td><td style="vertical-align:top;">:</td><td><div></div></td></tr><tr><td style="font-weight:bold;vertical-align:top;">httponly</td><td style="vertical-align:top;">:</td><td><div></div></td></tr><tr><td style="font-weight:bold;vertical-align:top;">max-age</td><td style="vertical-align:top;">:</td><td><div></div></td></tr><tr><td style="font-weight:bold;vertical-align:top;">path</td><td style="vertical-align:top;">:</td><td><div></div></td></tr><tr><td style="font-weight:bold;vertical-align:top;">secure</td><td style="vertical-align:top;">:</td><td><div></div></td></tr><tr><td style="font-weight:bold;vertical-align:top;">version</td><td style="vertical-align:top;">:</td><td><div></div></td></tr></table></div></td></tr><tr><td style="font-weight:bold;vertical-align:top;">session_id_aluminum</td><td style="vertical-align:top;">:</td><td><div>177.37.231.221-3610f216-3b39-4a34-9675-bedfad027efe<table><tr><td style="font-weight:bold;vertical-align:top;">comment</td><td style="vertical-align:top;">:</td><td><div></div></td></tr><tr><td style="font-weight:bold;vertical-align:top;">domain</td><td style="vertical-align:top;">:</td><td><div></div></td></tr><tr><td style="font-weight:bold;vertical-align:top;">expires</td><td style="vertical-align:top;">:</td><td><div></div></td></tr><tr><td style="font-weight:bold;vertical-align:top;">httponly</td><td style="vertical-align:top;">:</td><td><div></div></td></tr><tr><td style="font-weight:bold;vertical-align:top;">max-age</td><td style="vertical-align:top;">:</td><td><div></div></td></tr><tr><td style="font-weight:bold;vertical-align:top;">path</td><td style="vertical-align:top;">:</td><td><div></div></td></tr><tr><td style="font-weight:bold;vertical-align:top;">secure</td><td style="vertical-align:top;">:</td><td><div></div></td></tr><tr><td style="font-weight:bold;vertical-align:top;">version</td><td style="vertical-align:top;">:</td><td><div></div></td></tr></table></div></td></tr><tr><td style="font-weight:bold;vertical-align:top;">session_id_localfs</td><td style="vertical-align:top;">:</td><td><div>177.37.231.221-6c320a87-a79a-47cb-9016-bc4024c61f8a<table><tr><td style="font-weight:bold;vertical-align:top;">comment</td><td style="vertical-align:top;">:</td><td><div></div></td></tr><tr><td style="font-weight:bold;vertical-align:top;">domain</td><td style="vertical-align:top;">:</td><td><div></div></td></tr><tr><td style="font-weight:bold;vertical-align:top;">expires</td><td style="vertical-align:top;">:</td><td><div></div></td></tr><tr><td style="font-weight:bold;vertical-align:top;">httponly</td><td style="vertical-align:top;">:</td><td><div></div></td></tr><tr><td style="font-weight:bold;vertical-align:top;">max-age</td><td style="vertical-align:top;">:</td><td><div></div></td></tr><tr><td style="font-weight:bold;vertical-align:top;">path</td><td style="vertical-align:top;">:</td><td><div></div></td></tr><tr><td style="font-weight:bold;vertical-align:top;">secure</td><td style="vertical-align:top;">:</td><td><div></div></td></tr><tr><td style="font-weight:bold;vertical-align:top;">version</td><td style="vertical-align:top;">:</td><td><div></div></td></tr></table></div></td></tr></table></div></td></tr><tr><td style="font-weight:bold;vertical-align:top;">env</td><td style="vertical-align:top;">:</td><td><div><table><tr><td style="font-weight:bold;vertical-align:top;">CONTENT_LENGTH</td><td style="vertical-align:top;">:</td><td><div></div></td></tr><tr><td style="font-weight:bold;vertical-align:top;">CONTENT_TYPE</td><td style="vertical-align:top;">:</td><td><div></div></td></tr><tr><td style="font-weight:bold;vertical-align:top;">DOCUMENT_ROOT</td><td style="vertical-align:top;">:</td><td><div>/usr/local/openresty/nginx/html</div></td></tr><tr><td style="font-weight:bold;vertical-align:top;">HTTPS</td><td style="vertical-align:top;">:</td><td><div>on</div></td></tr><tr><td style="font-weight:bold;vertical-align:top;">HTTP_ACCEPT</td><td style="vertical-align:top;">:</td><td><div>text/html,application/xhtml+xml,application/xml;q=0.9,image/webp,image/apng,*/*;q=0.8,application/signed-exchange;v=b3;q=0.9</div></td></tr><tr><td style="font-weight:bold;vertical-align:top;">HTTP_ACCEPT_ENCODING</td><td style="vertical-align:top;">:</td><td><div>gzip, deflate, br</div></td></tr><tr><td style="font-weight:bold;vertical-align:top;">HTTP_ACCEPT_LANGUAGE</td><td style="vertical-align:top;">:</td><td><div>pt-BR,pt;q=0.9,en-US;q=0.8,en;q=0.7</div></td></tr><tr><td style="font-weight:bold;vertical-align:top;">HTTP_CACHE_CONTROL</td><td style="vertical-align:top;">:</td><td><div>max-age=0</div></td></tr><tr><td style="font-weight:bold;vertical-align:top;">HTTP_CONNECTION</td><td style="vertical-align:top;">:</td><td><div>close</div></td></tr><tr><td style="font-weight:bold;vertical-align:top;">HTTP_COOKIE</td><td style="vertical-align:top;">:</td><td><div>_ga=GA1.2.786035724.1591068301; session_id_admin=177.37.231.221-74a8e585-d780-4a3b-b931-d853da0fbb77; session_id_localfs=177.37.231.221-6c320a87-a79a-47cb-9016-bc4024c61f8a; _gid=GA1.2.395308210.1593988158; session_id_aluminum=177.37.231.221-3610f216-3b39-4a34-9675-bedfad027efe</div></td></tr><tr><td style="font-weight:bold;vertical-align:top;">HTTP_HOST</td><td style="vertical-align:top;">:</td><td><div>rogoberto.pythonanywhere.com</div></td></tr><tr><td style="font-weight:bold;vertical-align:top;">HTTP_REFERER</td><td style="vertical-align:top;">:</td><td><div>https://rogoberto.pythonanywhere.com/localfs/contrato/acessar_contrato/24</div></td></tr><tr><td style="font-weight:bold;vertical-align:top;">HTTP_SEC_FETCH_DEST</td><td style="vertical-align:top;">:</td><td><div>document</div></td></tr><tr><td style="font-weight:bold;vertical-align:top;">HTTP_SEC_FETCH_MODE</td><td style="vertical-align:top;">:</td><td><div>navigate</div></td></tr><tr><td style="font-weight:bold;vertical-align:top;">HTTP_SEC_FETCH_SITE</td><td style="vertical-align:top;">:</td><td><div>same-origin</div></td></tr><tr><td style="font-weight:bold;vertical-align:top;">HTTP_SEC_FETCH_USER</td><td style="vertical-align:top;">:</td><td><div>?1</div></td></tr><tr><td style="font-weight:bold;vertical-align:top;">HTTP_UPGRADE_INSECURE_REQUESTS</td><td style="vertical-align:top;">:</td><td><div>1</div></td></tr><tr><td style="font-weight:bold;vertical-align:top;">HTTP_USER_AGENT</td><td style="vertical-align:top;">:</td><td><div>Mozilla/5.0 (Windows NT 6.1; Win64; x64) AppleWebKit/537.36 (KHTML, like Gecko) Chrome/83.0.4103.116 Safari/537.36</div></td></tr><tr><td style="font-weight:bold;vertical-align:top;">HTTP_X_FORWARDED_FOR</td><td style="vertical-align:top;">:</td><td><div>177.37.231.221</div></td></tr><tr><td style="font-weight:bold;vertical-align:top;">HTTP_X_REAL_IP</td><td style="vertical-align:top;">:</td><td><div>177.37.231.221</div></td></tr><tr><td style="font-weight:bold;vertical-align:top;">PATH_INFO</td><td style="vertical-align:top;">:</td><td><div>/localfs/contrato/gerar_contrato/24</div></td></tr><tr><td style="font-weight:bold;vertical-align:top;">QUERY_STRING</td><td style="vertical-align:top;">:</td><td><div></div></td></tr><tr><td style="font-weight:bold;vertical-align:top;">REMOTE_ADDR</td><td style="vertical-align:top;">:</td><td><div>10.0.0.52</div></td></tr><tr><td style="font-weight:bold;vertical-align:top;">REMOTE_PORT</td><td style="vertical-align:top;">:</td><td><div>48890</div></td></tr><tr><td style="font-weight:bold;vertical-align:top;">REQUEST_METHOD</td><td style="vertical-align:top;">:</td><td><div>GET</div></td></tr><tr><td style="font-weight:bold;vertical-align:top;">REQUEST_URI</td><td style="vertical-align:top;">:</td><td><div>/localfs/contrato/gerar_contrato/24</div></td></tr><tr><td style="font-weight:bold;vertical-align:top;">SCRIPT_NAME</td><td style="vertical-align:top;">:</td><td><div></div></td></tr><tr><td style="font-weight:bold;vertical-align:top;">SERVER_NAME</td><td style="vertical-align:top;">:</td><td><div>rogoberto.pythonanywhere.com</div></td></tr><tr><td style="font-weight:bold;vertical-align:top;">SERVER_PORT</td><td style="vertical-align:top;">:</td><td><div>443</div></td></tr><tr><td style="font-weight:bold;vertical-align:top;">SERVER_PROTOCOL</td><td style="vertical-align:top;">:</td><td><div>HTTP/1.1</div></td></tr><tr><td style="font-weight:bold;vertical-align:top;">app_folders</td><td style="vertical-align:top;">:</td><td><div>set([&#x27;/home/rogoberto/web2py/applications/welcome/&#x27;, &#x27;/home/rogoberto/web2py/applications/admin/&#x27;, &#x27;/home/rogoberto/web2py/applications/localfs/&#x27;, &#x27;/home/rogoberto/web2py/applications/aluminum/&#x27;])</div></td></tr><tr><td style="font-weight:bold;vertical-align:top;">applications_parent</td><td style="vertical-align:top;">:</td><td><div>/home/rogoberto/web2py</div></td></tr><tr><td style="font-weight:bold;vertical-align:top;">content_length</td><td style="vertical-align:top;">:</td><td><div></div></td></tr><tr><td style="font-weight:bold;vertical-align:top;">content_type</td><td style="vertical-align:top;">:</td><td><div></div></td></tr><tr><td style="font-weight:bold;vertical-align:top;">db_sessions</td><td style="vertical-align:top;">:</td><td><div>set([])</div></td></tr><tr><td style="font-weight:bold;vertical-align:top;">debugging</td><td style="vertical-align:top;">:</td><td><div>True</div></td></tr><tr><td style="font-weight:bold;vertical-align:top;">document_root</td><td style="vertical-align:top;">:</td><td><div>/usr/local/openresty/nginx/html</div></td></tr><tr><td style="font-weight:bold;vertical-align:top;">gluon_parent</td><td style="vertical-align:top;">:</td><td><div>/home/rogoberto/web2py</div></td></tr><tr><td style="font-weight:bold;vertical-align:top;">http_accept</td><td style="vertical-align:top;">:</td><td><div>text/html,application/xhtml+xml,application/xml;q=0.9,image/webp,image/apng,*/*;q=0.8,application/signed-exchange;v=b3;q=0.9</div></td></tr><tr><td style="font-weight:bold;vertical-align:top;">http_accept_encoding</td><td style="vertical-align:top;">:</td><td><div>gzip, deflate, br</div></td></tr><tr><td style="font-weight:bold;vertical-align:top;">http_accept_language</td><td style="vertical-align:top;">:</td><td><div>pt-BR,pt;q=0.9,en-US;q=0.8,en;q=0.7</div></td></tr><tr><td style="font-weight:bold;vertical-align:top;">http_cache_control</td><td style="vertical-align:top;">:</td><td><div>max-age=0</div></td></tr><tr><td style="font-weight:bold;vertical-align:top;">http_connection</td><td style="vertical-align:top;">:</td><td><div>close</div></td></tr><tr><td style="font-weight:bold;vertical-align:top;">http_cookie</td><td style="vertical-align:top;">:</td><td><div>_ga=GA1.2.786035724.1591068301; session_id_admin=177.37.231.221-74a8e585-d780-4a3b-b931-d853da0fbb77; session_id_localfs=177.37.231.221-6c320a87-a79a-47cb-9016-bc4024c61f8a; _gid=GA1.2.395308210.1593988158; session_id_aluminum=177.37.231.221-3610f216-3b39-4a34-9675-bedfad027efe</div></td></tr><tr><td style="font-weight:bold;vertical-align:top;">http_host</td><td style="vertical-align:top;">:</td><td><div>rogoberto.pythonanywhere.com</div></td></tr><tr><td style="font-weight:bold;vertical-align:top;">http_referer</td><td style="vertical-align:top;">:</td><td><div>https://rogoberto.pythonanywhere.com/localfs/contrato/acessar_contrato/24</div></td></tr><tr><td style="font-weight:bold;vertical-align:top;">http_sec_fetch_dest</td><td style="vertical-align:top;">:</td><td><div>document</div></td></tr><tr><td style="font-weight:bold;vertical-align:top;">http_sec_fetch_mode</td><td style="vertical-align:top;">:</td><td><div>navigate</div></td></tr><tr><td style="font-weight:bold;vertical-align:top;">http_sec_fetch_site</td><td style="vertical-align:top;">:</td><td><div>same-origin</div></td></tr><tr><td style="font-weight:bold;vertical-align:top;">http_sec_fetch_user</td><td style="vertical-align:top;">:</td><td><div>?1</div></td></tr><tr><td style="font-weight:bold;vertical-align:top;">http_upgrade_insecure_requests</td><td style="vertical-align:top;">:</td><td><div>1</div></td></tr><tr><td style="font-weight:bold;vertical-align:top;">http_user_agent</td><td style="vertical-align:top;">:</td><td><div>Mozilla/5.0 (Windows NT 6.1; Win64; x64) AppleWebKit/537.36 (KHTML, like Gecko) Chrome/83.0.4103.116 Safari/537.36</div></td></tr><tr><td style="font-weight:bold;vertical-align:top;">http_x_forwarded_for</td><td style="vertical-align:top;">:</td><td><div>177.37.231.221</div></td></tr><tr><td style="font-weight:bold;vertical-align:top;">http_x_real_ip</td><td style="vertical-align:top;">:</td><td><div>177.37.231.221</div></td></tr><tr><td style="font-weight:bold;vertical-align:top;">https</td><td style="vertical-align:top;">:</td><td><div>on</div></td></tr><tr><td style="font-weight:bold;vertical-align:top;">is_jython</td><td style="vertical-align:top;">:</td><td><div>False</div></td></tr><tr><td style="font-weight:bold;vertical-align:top;">is_py2</td><td style="vertical-align:top;">:</td><td><div>True</div></td></tr><tr><td style="font-weight:bold;vertical-align:top;">is_pypy</td><td style="vertical-align:top;">:</td><td><div>False</div></td></tr><tr><td style="font-weight:bold;vertical-align:top;">is_source</td><td style="vertical-align:top;">:</td><td><div>True</div></td></tr><tr><td style="font-weight:bold;vertical-align:top;">local_hosts</td><td style="vertical-align:top;">:</td><td><div><table><tr><td><div>35.173.69.207</div></td></tr><tr><td><div>::ffff:127.0.0.1</div></td></tr><tr><td><div>::1</div></td></tr><tr><td><div>rogoberto.pythonanywhere.com</div></td></tr><tr><td><div>127.0.0.1</div></td></tr><tr><td><div>green-liveweb14</div></td></tr><tr><td><div>localhost</div></td></tr></table></div></td></tr><tr><td style="font-weight:bold;vertical-align:top;">path_info</td><td style="vertical-align:top;">:</td><td><div>/localfs/contrato/gerar_contrato/24</div></td></tr><tr><td style="font-weight:bold;vertical-align:top;">query_string</td><td style="vertical-align:top;">:</td><td><div></div></td></tr><tr><td style="font-weight:bold;vertical-align:top;">remote_addr</td><td style="vertical-align:top;">:</td><td><div>10.0.0.52</div></td></tr><tr><td style="font-weight:bold;vertical-align:top;">remote_port</td><td style="vertical-align:top;">:</td><td><div>48890</div></td></tr><tr><td style="font-weight:bold;vertical-align:top;">request_method</td><td style="vertical-align:top;">:</td><td><div>GET</div></td></tr><tr><td style="font-weight:bold;vertical-align:top;">request_uri</td><td style="vertical-align:top;">:</td><td><div>/localfs/contrato/gerar_contrato/24</div></td></tr><tr><td style="font-weight:bold;vertical-align:top;">script_name</td><td style="vertical-align:top;">:</td><td><div></div></td></tr><tr><td style="font-weight:bold;vertical-align:top;">server_name</td><td style="vertical-align:top;">:</td><td><div>rogoberto.pythonanywhere.com</div></td></tr><tr><td style="font-weight:bold;vertical-align:top;">server_port</td><td style="vertical-align:top;">:</td><td><div>443</div></td></tr><tr><td style="font-weight:bold;vertical-align:top;">server_protocol</td><td style="vertical-align:top;">:</td><td><div>HTTP/1.1</div></td></tr><tr><td style="font-weight:bold;vertical-align:top;">uwsgi.node</td><td style="vertical-align:top;">:</td><td><div>green-liveweb14</div></td></tr><tr><td style="font-weight:bold;vertical-align:top;">uwsgi.version</td><td style="vertical-align:top;">:</td><td><div>2.0.17.1</div></td></tr><tr><td style="font-weight:bold;vertical-align:top;">uwsgi_node</td><td style="vertical-align:top;">:</td><td><div>green-liveweb14</div></td></tr><tr><td style="font-weight:bold;vertical-align:top;">uwsgi_version</td><td style="vertical-align:top;">:</td><td><div>2.0.17.1</div></td></tr><tr><td style="font-weight:bold;vertical-align:top;">web2py_path</td><td style="vertical-align:top;">:</td><td><div>/home/rogoberto/web2py</div></td></tr><tr><td style="font-weight:bold;vertical-align:top;">web2py_version</td><td style="vertical-align:top;">:</td><td><div>2.17.1-stable+timestamp.2018.08.06.01.02.56</div></td></tr><tr><td style="font-weight:bold;vertical-align:top;">wsgi.errors</td><td style="vertical-align:top;">:</td><td><div>&lt;uwsgi_file__bin_user_wsgi_wrapper.ErrorLogFile object at 0x7f7ccdb5fd10&gt;</div></td></tr><tr><td style="font-weight:bold;vertical-align:top;">wsgi.file_wrapper</td><td style="vertical-align:top;">:</td><td><div>&lt;built-in function uwsgi_sendfile&gt;</div></td></tr><tr><td style="font-weight:bold;vertical-align:top;">wsgi.input</td><td style="vertical-align:top;">:</td><td><div>&lt;uwsgi._Input object at 0x7f7ccef6fd50&gt;</div></td></tr><tr><td style="font-weight:bold;vertical-align:top;">wsgi.multiprocess</td><td style="vertical-align:top;">:</td><td><div>False</div></td></tr><tr><td style="font-weight:bold;vertical-align:top;">wsgi.multithread</td><td style="vertical-align:top;">:</td><td><div>False</div></td></tr><tr><td style="font-weight:bold;vertical-align:top;">wsgi.run_once</td><td style="vertical-align:top;">:</td><td><div>False</div></td></tr><tr><td style="font-weight:bold;vertical-align:top;">wsgi.url_scheme</td><td style="vertical-align:top;">:</td><td><div>https</div></td></tr><tr><td style="font-weight:bold;vertical-align:top;">wsgi.version</td><td style="vertical-align:top;">:</td><td><div><table><tr><td><div>1</div></td></tr><tr><td><div>0</div></td></tr></table></div></td></tr><tr><td style="font-weight:bold;vertical-align:top;">wsgi_errors</td><td style="vertical-align:top;">:</td><td><div>&lt;uwsgi_file__bin_user_wsgi_wrapper.ErrorLogFile object at 0x7f7ccdb5fd10&gt;</div></td></tr><tr><td style="font-weight:bold;vertical-align:top;">wsgi_file_wrapper</td><td style="vertical-align:top;">:</td><td><div>&lt;built-in function uwsgi_sendfile&gt;</div></td></tr><tr><td style="font-weight:bold;vertical-align:top;">wsgi_input</td><td style="vertical-align:top;">:</td><td><div>&lt;uwsgi._Input object at 0x7f7ccef6fd50&gt;</div></td></tr><tr><td style="font-weight:bold;vertical-align:top;">wsgi_multiprocess</td><td style="vertical-align:top;">:</td><td><div>False</div></td></tr><tr><td style="font-weight:bold;vertical-align:top;">wsgi_multithread</td><td style="vertical-align:top;">:</td><td><div>False</div></td></tr><tr><td style="font-weight:bold;vertical-align:top;">wsgi_run_once</td><td style="vertical-align:top;">:</td><td><div>False</div></td></tr><tr><td style="font-weight:bold;vertical-align:top;">wsgi_url_scheme</td><td style="vertical-align:top;">:</td><td><div>https</div></td></tr><tr><td style="font-weight:bold;vertical-align:top;">wsgi_version</td><td style="vertical-align:top;">:</td><td><div><table><tr><td><div>1</div></td></tr><tr><td><div>0</div></td></tr></table></div></td></tr></table></div></td></tr><tr><td style="font-weight:bold;vertical-align:top;">extension</td><td style="vertical-align:top;">:</td><td><div>html</div></td></tr><tr><td style="font-weight:bold;vertical-align:top;">folder</td><td style="vertical-align:top;">:</td><td><div>/home/rogoberto/web2py/applications/localfs/</div></td></tr><tr><td style="font-weight:bold;vertical-align:top;">function</td><td style="vertical-align:top;">:</td><td><div>gerar_contrato</div></td></tr><tr><td style="font-weight:bold;vertical-align:top;">global_settings</td><td style="vertical-align:top;">:</td><td><div><table><tr><td style="font-weight:bold;vertical-align:top;">app_folders</td><td style="vertical-align:top;">:</td><td><div>set([&#x27;/home/rogoberto/web2py/applications/welcome/&#x27;, &#x27;/home/rogoberto/web2py/applications/admin/&#x27;, &#x27;/home/rogoberto/web2py/applications/localfs/&#x27;, &#x27;/home/rogoberto/web2py/applications/aluminum/&#x27;])</div></td></tr><tr><td style="font-weight:bold;vertical-align:top;">applications_parent</td><td style="vertical-align:top;">:</td><td><div>/home/rogoberto/web2py</div></td></tr><tr><td style="font-weight:bold;vertical-align:top;">db_sessions</td><td style="vertical-align:top;">:</td><td><div>set([])</div></td></tr><tr><td style="font-weight:bold;vertical-align:top;">debugging</td><td style="vertical-align:top;">:</td><td><div>True</div></td></tr><tr><td style="font-weight:bold;vertical-align:top;">gluon_parent</td><td style="vertical-align:top;">:</td><td><div>/home/rogoberto/web2py</div></td></tr><tr><td style="font-weight:bold;vertical-align:top;">is_jython</td><td style="vertical-align:top;">:</td><td><div>False</div></td></tr><tr><td style="font-weight:bold;vertical-align:top;">is_py2</td><td style="vertical-align:top;">:</td><td><div>True</div></td></tr><tr><td style="font-weight:bold;vertical-align:top;">is_pypy</td><td style="vertical-align:top;">:</td><td><div>False</div></td></tr><tr><td style="font-weight:bold;vertical-align:top;">is_source</td><td style="vertical-align:top;">:</td><td><div>True</div></td></tr><tr><td style="font-weight:bold;vertical-align:top;">local_hosts</td><td style="vertical-align:top;">:</td><td><div><table><tr><td><div>35.173.69.207</div></td></tr><tr><td><div>::ffff:127.0.0.1</div></td></tr><tr><td><div>::1</div></td></tr><tr><td><div>rogoberto.pythonanywhere.com</div></td></tr><tr><td><div>127.0.0.1</div></td></tr><tr><td><div>green-liveweb14</div></td></tr><tr><td><div>localhost</div></td></tr></table></div></td></tr><tr><td style="font-weight:bold;vertical-align:top;">web2py_version</td><td style="vertical-align:top;">:</td><td><div>2.17.1-stable+timestamp.2018.08.06.01.02.56</div></td></tr></table></div></td></tr><tr><td style="font-weight:bold;vertical-align:top;">is_https</td><td style="vertical-align:top;">:</td><td><div>True</div></td></tr><tr><td style="font-weight:bold;vertical-align:top;">is_local</td><td style="vertical-align:top;">:</td><td><div>False</div></td></tr><tr><td style="font-weight:bold;vertical-align:top;">is_restful</td><td style="vertical-align:top;">:</td><td><div>False</div></td></tr><tr><td style="font-weight:bold;vertical-align:top;">is_scheduler</td><td style="vertical-align:top;">:</td><td><div>False</div></td></tr><tr><td style="font-weight:bold;vertical-align:top;">is_shell</td><td style="vertical-align:top;">:</td><td><div>False</div></td></tr><tr><td style="font-weight:bold;vertical-align:top;">method</td><td style="vertical-align:top;">:</td><td><div>GET</div></td></tr><tr><td style="font-weight:bold;vertical-align:top;">now</td><td style="vertical-align:top;">:</td><td><div>datetime.datetime(2020, 7, 5, 23, 14, 52, 10868)</div></td></tr><tr><td style="font-weight:bold;vertical-align:top;">raw_args</td><td style="vertical-align:top;">:</td><td><div>24</div></td></tr><tr><td style="font-weight:bold;vertical-align:top;">raw_extension</td><td style="vertical-align:top;">:</td><td><div>None</div></td></tr><tr><td style="font-weight:bold;vertical-align:top;">url</td><td style="vertical-align:top;">:</td><td><div>/localfs/contrato/gerar_contrato/24</div></td></tr><tr><td style="font-weight:bold;vertical-align:top;">utcnow</td><td style="vertical-align:top;">:</td><td><div>datetime.datetime(2020, 7, 5, 23, 14, 52, 10898)</div></td></tr><tr><td style="font-weight:bold;vertical-align:top;">wsgi</td><td style="vertical-align:top;">:</td><td><div>&lt;gluon.main.LazyWSGI object at 0x7f7cc5c0c950&gt;</div></td></tr></table></div>'
tRp60
sS'frames'
p61
(lp62
(dp63
S'file'
p64
S'/home/rogoberto/web2py/gluon/restricted.py'
p65
sS'dump'
p66
(dp67
S'environment'
p68
S"{'A': <class 'gluon.html.A'>, 'ANY_OF': <class 'gluon.validators.ANY_OF'>, 'ASSIGNJS': <function ASSIGNJS>, 'AppConfig': <function AppConfig>, 'Auth': <class 'gluon.tools.Auth'>, 'B': <class 'gluon.html.B'>, 'BEAUTIFY': <class 'gluon.html.BEAUTIFY'>, 'BODY': <class 'gluon.html.BODY'>, 'BR': <class 'gluon.html.BR'>, 'BUTTON': <class 'gluon.html.BUTTON'>, ...}"
p69
sS'ccode'
p70
S'<code object <module> at 0x7f7cc66bd930, file "/...alfs/views/contrato/gerar_contrato.html", line 1>'
p71
ssS'lnum'
p72
I219
sS'lines'
p73
(dp74
I214
S'    if environment is None:'
p75
sI215
S'        environment = {}'
p76
sI216
S"    environment['__file__'] = layer"
p77
sI217
S"    environment['__name__'] = '__restricted__'"
p78
sI218
S'    try:'
p79
sI219
S'        exec(ccode, environment)'
p80
sI220
S'    except HTTP:'
p81
sI221
S'        raise'
p82
sI222
S'    except RestrictedError:'
p83
sI223
S'        # do not encapsulate (obfuscate) the original RestrictedError'
p84
ssS'call'
p85
S'(ccode=<code object <module> at 0x7f7cc66bd930, file "/...alfs/views/contrato/gerar_contrato.html", line 1>, environment={\'A\': <class \'gluon.html.A\'>, \'ANY_OF\': <class \'gluon.validators.ANY_OF\'>, \'ASSIGNJS\': <function ASSIGNJS>, \'AppConfig\': <function AppConfig>, \'Auth\': <class \'gluon.tools.Auth\'>, \'B\': <class \'gluon.html.B\'>, \'BEAUTIFY\': <class \'gluon.html.BEAUTIFY\'>, \'BODY\': <class \'gluon.html.BODY\'>, \'BR\': <class \'gluon.html.BR\'>, \'BUTTON\': <class \'gluon.html.BUTTON\'>, ...}, layer=\'/home/rogoberto/web2py/applications/localfs/views/contrato/gerar_contrato.html\', scode=r"response.write(\'<!DOCTYPE html>\\n<!--[if (gt IE ...nse.write(\'\\n  </body>\\n</html>\\n\', escape=False)")'
p86
sS'func'
p87
S'restricted'
p88
sa(dp89
g64
S'/home/rogoberto/web2py/applications/localfs/views/contrato/gerar_contrato.html'
p90
sg66
(dp91
sg72
I436
sg73
(dp92
I427
S'    response.write(contrato.avalista.lougradouro)'
p93
sI428
S"    response.write(' , N\\xc2\\xb0 ', escape=False)"
p94
sI429
S'    response.write(contrato.avalista.numero)'
p95
sI430
S"    response.write(' BAIRRO: ', escape=False)"
p96
sI431
S'    response.write(contrato.avalista.bairro)'
p97
sI432
S"    response.write(' , ', escape=False)"
p98
sI433
S'    response.write(contrato.avalista.cidade)'
p99
sI434
S'    response.write(contrato.avalista.uf)'
p100
sI435
S"    response.write(',', escape=False)"
p101
sI436
S'    if len(contrato.avalista.TELEFONE)>10:'
p102
sI437
S"        response.write('  TELEFONE ', escape=False)"
p103
sI438
S'        response.write(contrato.avalista.TELEFONE)'
p104
sI439
S'        pass'
p105
sI440
S"    response.write('</b>,  FIADOR declara, expressamente que a sua responsabilidade perdurar\\xc3\\xa1 at\\xc3\\xa9 a entrega  das chaves, renunciando, \\xc3\\xa0 faculdade contida no art. 835 do c\\xc3\\xb3digo civil.As partes contratantes elegem o foro da situa\\xc3\\xa7\\xc3\\xa3o do im\\xc3\\xb3vel, qualquer que seja o seu domic\\xc3\\xadlio. </p>\\n\\n\\n\\n\\n', escape=False)"
p106
sI441
S'    pass'
p107
sI442
S"response.write('\\n<p>E por estarem justos e contratados, assinam o presente instrumento em 02 (duas vias) de igual teor, na presen\\xc3\\xa7a de testemunhas que igualmente abaixo assinam: </p>\\n            <br>\\n            <br>\\n<center>\\n    <h4>\\n        <b>\\n      ', escape=False)"
p108
sI443
S'response.write(contrato.local_contrato)'
p109
sI444
S"response.write('  DE ', escape=False)"
p110
sI445
S'response.write(contrato.data_contrato.day)'
p111
sI446
S"response.write(' DE \\n                ', escape=False)"
p112
ssg85
S'()'
p113
sg87
S'<module>'
p114
sasS'pyver'
p115
S'Python 2.7.12: /usr/local/bin/uwsgi (prefix: /usr)'
p116
sS'session'
p117
g59
(S's\xe7\x08\x00\x00<div><table><tr><td style="font-weight:bold;vertical-align:top;">auth</td><td style="vertical-align:top;">:</td><td><div><table><tr><td style="font-weight:bold;vertical-align:top;">expiration</td><td style="vertical-align:top;">:</td><td><div>3600</div></td></tr><tr><td style="font-weight:bold;vertical-align:top;">hmac_key</td><td style="vertical-align:top;">:</td><td><div>8b541091-8b98-48d5-b9f5-958bc369bcca</div></td></tr><tr><td style="font-weight:bold;vertical-align:top;">last_visit</td><td style="vertical-align:top;">:</td><td><div>datetime.datetime(2020, 7, 5, 23, 13, 43, 877022)</div></td></tr><tr><td style="font-weight:bold;vertical-align:top;">remember_me</td><td style="vertical-align:top;">:</td><td><div>False</div></td></tr><tr><td style="font-weight:bold;vertical-align:top;">user</td><td style="vertical-align:top;">:</td><td><div><table><tr><td style="font-weight:bold;vertical-align:top;">email</td><td style="vertical-align:top;">:</td><td><div>usbetin@gmail.com</div></td></tr><tr><td style="font-weight:bold;vertical-align:top;">first_name</td><td style="vertical-align:top;">:</td><td><div>teste</div></td></tr><tr><td style="font-weight:bold;vertical-align:top;">id</td><td style="vertical-align:top;">:</td><td><div>1L</div></td></tr><tr><td style="font-weight:bold;vertical-align:top;">last_name</td><td style="vertical-align:top;">:</td><td><div>teste</div></td></tr><tr><td style="font-weight:bold;vertical-align:top;">registration_id</td><td style="vertical-align:top;">:</td><td><div></div></td></tr><tr><td style="font-weight:bold;vertical-align:top;">registration_key</td><td style="vertical-align:top;">:</td><td><div></div></td></tr><tr><td style="font-weight:bold;vertical-align:top;">reset_password_key</td><td style="vertical-align:top;">:</td><td><div></div></td></tr></table></div></td></tr><tr><td style="font-weight:bold;vertical-align:top;">user_groups</td><td style="vertical-align:top;">:</td><td><div><table><tr><td style="font-weight:bold;vertical-align:top;">1</td><td style="vertical-align:top;">:</td><td><div>user_1</div></td></tr></table></div></td></tr></table></div></td></tr><tr><td style="font-weight:bold;vertical-align:top;">flash</td><td style="vertical-align:top;">:</td><td><div>None</div></td></tr></table></div>'
tRp118
sS'etype'
p119
S"<type 'exceptions.TypeError'>"
p120
sS'date'
p121
S'Sun Jul  5 23:14:54 2020'
p122
sS'response'
p123
g59
(S'sl*\x00\x00<div><table><tr><td style="font-weight:bold;vertical-align:top;">body</td><td style="vertical-align:top;">:</td><td><div>&lt;cStringIO.StringO object at 0x7f7ccd4df180&gt;</div></td></tr><tr><td style="font-weight:bold;vertical-align:top;">cookies</td><td style="vertical-align:top;">:</td><td><div><table><tr><td style="font-weight:bold;vertical-align:top;">session_id_localfs</td><td style="vertical-align:top;">:</td><td><div>177.37.231.221-6c320a87-a79a-47cb-9016-bc4024c61f8a<table><tr><td style="font-weight:bold;vertical-align:top;">comment</td><td style="vertical-align:top;">:</td><td><div></div></td></tr><tr><td style="font-weight:bold;vertical-align:top;">domain</td><td style="vertical-align:top;">:</td><td><div></div></td></tr><tr><td style="font-weight:bold;vertical-align:top;">expires</td><td style="vertical-align:top;">:</td><td><div></div></td></tr><tr><td style="font-weight:bold;vertical-align:top;">httponly</td><td style="vertical-align:top;">:</td><td><div></div></td></tr><tr><td style="font-weight:bold;vertical-align:top;">max-age</td><td style="vertical-align:top;">:</td><td><div></div></td></tr><tr><td style="font-weight:bold;vertical-align:top;">path</td><td style="vertical-align:top;">:</td><td><div>/</div></td></tr><tr><td style="font-weight:bold;vertical-align:top;">secure</td><td style="vertical-align:top;">:</td><td><div></div></td></tr><tr><td style="font-weight:bold;vertical-align:top;">version</td><td style="vertical-align:top;">:</td><td><div></div></td></tr></table></div></td></tr></table></div></td></tr><tr><td style="font-weight:bold;vertical-align:top;">delimiters</td><td style="vertical-align:top;">:</td><td><div><table><tr><td><div>{{</div></td></tr><tr><td><div>}}</div></td></tr></table></div></td></tr><tr><td style="font-weight:bold;vertical-align:top;">files</td><td style="vertical-align:top;">:</td><td><div><table><tr><td><div>/localfs/static/js/jquery.js</div></td></tr><tr><td><div>/localfs/static/css/calendar.css</div></td></tr><tr><td><div>/localfs/static/js/calendar.js</div></td></tr><tr><td><div>/localfs/static/js/web2py.js</div></td></tr></table></div></td></tr><tr><td style="font-weight:bold;vertical-align:top;">flash</td><td style="vertical-align:top;">:</td><td><div></div></td></tr><tr><td style="font-weight:bold;vertical-align:top;">form_label_separator</td><td style="vertical-align:top;">:</td><td><div></div></td></tr><tr><td style="font-weight:bold;vertical-align:top;">formstyle</td><td style="vertical-align:top;">:</td><td><div>bootstrap4_inline</div></td></tr><tr><td style="font-weight:bold;vertical-align:top;">generic_patterns</td><td style="vertical-align:top;">:</td><td><div><table></table></div></td></tr><tr><td style="font-weight:bold;vertical-align:top;">google_analytics_id</td><td style="vertical-align:top;">:</td><td><div>None</div></td></tr><tr><td style="font-weight:bold;vertical-align:top;">headers</td><td style="vertical-align:top;">:</td><td><div><table><tr><td style="font-weight:bold;vertical-align:top;">X-Powered-By</td><td style="vertical-align:top;">:</td><td><div>web2py</div></td></tr></table></div></td></tr><tr><td style="font-weight:bold;vertical-align:top;">menu</td><td style="vertical-align:top;">:</td><td><div><table><tr><td><div><table><tr><td><div>Principal</div></td></tr><tr><td><div>False</div></td></tr><tr><td><div>/localfs/default/index</div></td></tr><tr><td><div><table></table></div></td></tr></table></div></td></tr><tr><td><div><table><tr><td><div>Cadastro</div></td></tr><tr><td><div>False</div></td></tr><tr><td><div>None</div></td></tr><tr><td><div><table><tr><td><div><table><tr><td><div>Pessoa</div></td></tr><tr><td><div>False</div></td></tr><tr><td><div>/localfs/pessoa/cadastro_pessoa</div></td></tr><tr><td><div>[]</div></td></tr></table></div></td></tr><tr><td><div><table><tr><td><div>Imovel</div></td></tr><tr><td><div>False</div></td></tr><tr><td><div>/localfs/imovel/cadastro_imovel</div></td></tr><tr><td><div>[]</div></td></tr></table></div></td></tr></table></div></td></tr></table></div></td></tr><tr><td><div><table><tr><td><div>Consulta</div></td></tr><tr><td><div>False</div></td></tr><tr><td><div>None</div></td></tr><tr><td><div><table><tr><td><div><table><tr><td><div>Pessoa</div></td></tr><tr><td><div>False</div></td></tr><tr><td><div>/localfs/pessoa/acesso</div></td></tr><tr><td><div>[]</div></td></tr></table></div></td></tr><tr><td><div><table><tr><td><div>Imovel</div></td></tr><tr><td><div>False</div></td></tr><tr><td><div>/localfs/imovel/acesso</div></td></tr><tr><td><div>[]</div></td></tr></table></div></td></tr></table></div></td></tr></table></div></td></tr><tr><td><div><table><tr><td><div>Lembrete</div></td></tr><tr><td><div>False</div></td></tr><tr><td><div>#</div></td></tr><tr><td><div><table><tr><td><div><table><tr><td><div>Imoveis disponiveis</div></td></tr><tr><td><div>False</div></td></tr><tr><td><div>/localfs/contrato/#</div></td></tr><tr><td><div>[]</div></td></tr></table></div></td></tr><tr><td><div><table><tr><td><div>Imoveis indisponiveis</div></td></tr><tr><td><div>False</div></td></tr><tr><td><div>/localfs/contrato/#</div></td></tr><tr><td><div>[]</div></td></tr></table></div></td></tr><tr><td><div><table><tr><td><div>Recebimentos em debito</div></td></tr><tr><td><div>False</div></td></tr><tr><td><div>/localfs/contrato/#</div></td></tr><tr><td><div>[]</div></td></tr></table></div></td></tr><tr><td><div><table><tr><td><div>Recebimentos quitados</div></td></tr><tr><td><div>False</div></td></tr><tr><td><div>/localfs/contrato/#</div></td></tr><tr><td><div>[]</div></td></tr></table></div></td></tr><tr><td><div><table><tr><td><div>Despesas empresarias</div></td></tr><tr><td><div>False</div></td></tr><tr><td><div>/localfs/contrato/#</div></td></tr><tr><td><div>[]</div></td></tr></table></div></td></tr><tr><td><div><table><tr><td><div>Despesas por imovel</div></td></tr><tr><td><div>False</div></td></tr><tr><td><div>/localfs/contrato/#</div></td></tr><tr><td><div>[]</div></td></tr></table></div></td></tr><tr><td><div><table><tr><td><div>Contratos vencidos</div></td></tr><tr><td><div>False</div></td></tr><tr><td><div>/localfs/contrato/#</div></td></tr><tr><td><div>[]</div></td></tr></table></div></td></tr><tr><td><div><table><tr><td><div>Recebimentos</div></td></tr><tr><td><div>False</div></td></tr><tr><td><div>/localfs/contrato/#</div></td></tr><tr><td><div>[]</div></td></tr></table></div></td></tr><tr><td><div><table><tr><td><div>Gastos e despesas</div></td></tr><tr><td><div>False</div></td></tr><tr><td><div>/localfs/contrato/#</div></td></tr><tr><td><div>[]</div></td></tr></table></div></td></tr><tr><td><div><table><tr><td><div>Contratos novos</div></td></tr><tr><td><div>False</div></td></tr><tr><td><div>/localfs/contrato/#</div></td></tr><tr><td><div>[]</div></td></tr></table></div></td></tr></table></div></td></tr></table></div></td></tr></table></div></td></tr><tr><td style="font-weight:bold;vertical-align:top;">meta</td><td style="vertical-align:top;">:</td><td><div><table><tr><td style="font-weight:bold;vertical-align:top;">author</td><td style="vertical-align:top;">:</td><td><div>Your Name &lt;you@example.com&gt;</div></td></tr><tr><td style="font-weight:bold;vertical-align:top;">description</td><td style="vertical-align:top;">:</td><td><div>a cool new app</div></td></tr><tr><td style="font-weight:bold;vertical-align:top;">generator</td><td style="vertical-align:top;">:</td><td><div>Web2py Web Framework</div></td></tr><tr><td style="font-weight:bold;vertical-align:top;">keywords</td><td style="vertical-align:top;">:</td><td><div><table><tr><td><div>web2py</div></td></tr><tr><td><div>python</div></td></tr><tr><td><div>framework</div></td></tr></table></div></td></tr></table></div></td></tr><tr><td style="font-weight:bold;vertical-align:top;">models_to_run</td><td style="vertical-align:top;">:</td><td><div><table><tr><td><div>^\\w+\\.py$</div></td></tr><tr><td><div>^contrato/\\w+\\.py$</div></td></tr><tr><td><div>^contrato/gerar_contrato/\\w+\\.py$</div></td></tr></table></div></td></tr><tr><td style="font-weight:bold;vertical-align:top;">postprocessing</td><td style="vertical-align:top;">:</td><td><div><table></table></div></td></tr><tr><td style="font-weight:bold;vertical-align:top;">session_client</td><td style="vertical-align:top;">:</td><td><div>177.37.231.221</div></td></tr><tr><td style="font-weight:bold;vertical-align:top;">session_cookie_compression_level</td><td style="vertical-align:top;">:</td><td><div>None</div></td></tr><tr><td style="font-weight:bold;vertical-align:top;">session_cookie_expires</td><td style="vertical-align:top;">:</td><td><div>None</div></td></tr><tr><td style="font-weight:bold;vertical-align:top;">session_data_name</td><td style="vertical-align:top;">:</td><td><div>session_data_localfs</div></td></tr><tr><td style="font-weight:bold;vertical-align:top;">session_file</td><td style="vertical-align:top;">:</td><td><div>&lt;open file &#x27;/home/rogoberto/web2py/applications/localfs/sessions/06d/1ab/177.37.231.221-6c320a87-a79a-47cb-9016-bc4024c61f8a&#x27;, mode &#x27;rb+&#x27; at 0x7f7cc692da50&gt;</div></td></tr><tr><td style="font-weight:bold;vertical-align:top;">session_filename</td><td style="vertical-align:top;">:</td><td><div>/home/rogoberto/web2py/applications/localfs/sessions/177.37.231.221-6c320a87-a79a-47cb-9016-bc4024c61f8a</div></td></tr><tr><td style="font-weight:bold;vertical-align:top;">session_hash</td><td style="vertical-align:top;">:</td><td><div>14cefbecccb59a839305e9cc55921ac3</div></td></tr><tr><td style="font-weight:bold;vertical-align:top;">session_id</td><td style="vertical-align:top;">:</td><td><div>177.37.231.221-6c320a87-a79a-47cb-9016-bc4024c61f8a</div></td></tr><tr><td style="font-weight:bold;vertical-align:top;">session_id_name</td><td style="vertical-align:top;">:</td><td><div>session_id_localfs</div></td></tr><tr><td style="font-weight:bold;vertical-align:top;">session_locked</td><td style="vertical-align:top;">:</td><td><div>True</div></td></tr><tr><td style="font-weight:bold;vertical-align:top;">session_masterapp</td><td style="vertical-align:top;">:</td><td><div>localfs</div></td></tr><tr><td style="font-weight:bold;vertical-align:top;">session_new</td><td style="vertical-align:top;">:</td><td><div>False</div></td></tr><tr><td style="font-weight:bold;vertical-align:top;">session_storage_type</td><td style="vertical-align:top;">:</td><td><div>file</div></td></tr><tr><td style="font-weight:bold;vertical-align:top;">show_toolbar</td><td style="vertical-align:top;">:</td><td><div>False</div></td></tr><tr><td style="font-weight:bold;vertical-align:top;">status</td><td style="vertical-align:top;">:</td><td><div>200</div></td></tr><tr><td style="font-weight:bold;vertical-align:top;">view</td><td style="vertical-align:top;">:</td><td><div>contrato/gerar_contrato.html</div></td></tr></table></div>'
tRp124
sS'locals'
p125
(dp126
S'PY2'
p127
S'True'
p128
sS'OBJECT'
p129
S"<class 'gluon.html.OBJECT'>"
p130
sS'SQLDB'
p131
S"<class 'pydal.base.DAL'>"
p132
sg117
S"<Storage {'_formkey[contrato_aluguel/create]': [.../15]': ['23898ae5-4a0d-44f9-9b56-8e320b4e7a7c']}>"
p133
sS'LINK'
p134
S"<class 'gluon.html.LINK'>"
p135
sS'BR'
p136
S"<class 'gluon.html.BR'>"
p137
sS'local_import'
p138
S'<function <lambda>>'
p139
sS'OPTGROUP'
p140
S"<class 'gluon.html.OPTGROUP'>"
p141
sS'__package__'
p142
S'None'
p143
sS'PRE'
p144
S"<class 'gluon.html.PRE'>"
p145
sS'IS_INT_IN_RANGE'
p146
S"<class 'gluon.validators.IS_INT_IN_RANGE'>"
p147
sS'to_bytes'
p148
S'<function to_bytes>'
p149
sS'IS_LOWER'
p150
S"<class 'gluon.validators.IS_LOWER'>"
p151
sS'IS_STRONG'
p152
S"<class 'gluon.validators.IS_STRONG'>"
p153
sS'cache'
p154
S'<gluon.cache.Cache object>'
p155
sS'IS_IN_DB'
p156
S"<class 'gluon.validators.IS_IN_DB'>"
p157
sS'TAG'
p158
S'<gluon.html.__TAG__ object>'
p159
sS'SQLField'
p160
S"<class 'pydal.objects.Field'>"
p161
sS'mail'
p162
S'<gluon.tools.Mail object>'
p163
sS'BODY'
p164
S"<class 'gluon.html.BODY'>"
p165
sS'IS_DATE_IN_RANGE'
p166
S"<class 'gluon.validators.IS_DATE_IN_RANGE'>"
p167
sS'IFRAME'
p168
S"<class 'gluon.html.IFRAME'>"
p169
sS'URL'
p170
S'<function URL>'
p171
sS'__file__'
p172
S"'/home/rogoberto/web2py/applications/localfs/views/contrato/gerar_contrato.html'"
p173
sS'db'
p174
S'<DAL uri="sqlite://storage.sqlite">'
p175
sS'auth'
p176
S'<gluon.tools.Auth object>'
p177
sS'P'
S"<class 'gluon.html.P'>"
p178
sS'TFOOT'
p179
S"<class 'gluon.html.TFOOT'>"
p180
sS'iteritems'
p181
S'<function <lambda>>'
p182
sS'XHTML'
p183
S"<class 'gluon.html.XHTML'>"
p184
sS'ON'
p185
g128
sS'OL'
p186
S"<class 'gluon.html.OL'>"
p187
sS'TEXTAREA'
p188
S"<class 'gluon.html.TEXTAREA'>"
p189
sS'MENU'
p190
S"<class 'gluon.html.MENU'>"
p191
sS'IS_IMAGE'
p192
S"<class 'gluon.validators.IS_IMAGE'>"
p193
sS'EM'
p194
S"<class 'gluon.html.EM'>"
p195
sS'CODE'
p196
S"<class 'gluon.html.CODE'>"
p197
sS'HTTP'
p198
S"<class 'gluon.http.HTTP'>"
p199
sS'HR'
p200
S"<class 'gluon.html.HR'>"
p201
sS'IS_DATETIME'
p202
S"<class 'gluon.validators.IS_DATETIME'>"
p203
sS'reduce'
p204
S'<built-in function reduce>'
p205
sS'STYLE'
p206
S"<class 'gluon.html.STYLE'>"
p207
sS'LABEL'
p208
S"<class 'gluon.html.LABEL'>"
p209
sS'CLEANUP'
p210
S"<class 'gluon.validators.CLEANUP'>"
p211
sS'SELECT'
p212
S"<class 'gluon.html.SELECT'>"
p213
sS'CENTER'
p214
S"<class 'gluon.html.CENTER'>"
p215
sS'Auth'
p216
S"<class 'gluon.tools.Auth'>"
p217
sS'__builtins__'
p218
S"{'ArithmeticError': <type 'exceptions.ArithmeticError'>, 'AssertionError': <type 'exceptions.AssertionError'>, 'AttributeError': <type 'exceptions.AttributeError'>, 'BaseException': <type 'exceptions.BaseException'>, 'BufferError': <type 'exceptions.BufferError'>, 'BytesWarning': <type 'exceptions.BytesWarning'>, 'DeprecationWarning': <type 'exceptions.DeprecationWarning'>, 'EOFError': <type 'exceptions.EOFError'>, 'Ellipsis': Ellipsis, 'EnvironmentError': <type 'exceptions.EnvironmentError'>, ...}"
p219
sS'HTML'
p220
S"<class 'gluon.html.HTML'>"
p221
sS'SQLFORM'
p222
S"<class 'gluon.sqlhtml.SQLFORM'>"
p223
sS'_item'
p224
S"(<lazyT 'Lembrete'>, False, '#', [(<lazyT 'Imoveis disponiveis'>, False, '/localfs/contrato/#', []), (<lazyT 'Imoveis indisponiveis'>, False, '/localfs/contrato/#', []), (<lazyT 'Recebimentos em debito'>, False, '/localfs/contrato/#', []), (<lazyT 'Recebimentos quitados'>, False, '/localfs/contrato/#', []), (<lazyT 'Despesas empresarias'>, False, '/localfs/contrato/#', []), (<lazyT 'Despesas por imovel'>, False, '/localfs/contrato/#', []), (<lazyT 'Contratos vencidos'>, False, '/localfs/contrato/#', []), (<lazyT 'Recebimentos'>, False, '/localfs/contrato/#', []), (<lazyT 'Gastos e despesas'>, False, '/localfs/contrato/#', []), (<lazyT 'Contratos novos'>, False, '/localfs/contrato/#', [])])"
p225
sS'LOAD'
p226
S'<function LOAD>'
p227
sS'redirect'
p228
S'<function redirect>'
p229
sS'FIELDSET'
p230
S"<class 'gluon.html.FIELDSET'>"
p231
sS'IS_EQUAL_TO'
p232
S"<class 'gluon.validators.IS_EQUAL_TO'>"
p233
sS'embed64'
p234
S'<function embed64>'
p235
sS'IS_LIST_OF'
p236
S"<class 'gluon.validators.IS_LIST_OF'>"
p237
sS'INPUT'
p238
S"<class 'gluon.html.INPUT'>"
p239
sS'EMBED'
p240
S"<class 'gluon.html.EMBED'>"
p241
sS'configuration'
p242
S"{'host': {'names': 'localhost:*, 127.0.0.1:*, *:...': 'sqlite://storage.sqlite', 'pool_size': '10'}}"
p243
sS'H2'
p244
S"<class 'gluon.html.H2'>"
p245
sS'H3'
p246
S"<class 'gluon.html.H3'>"
p247
sS'AppConfig'
p248
S'<function AppConfig>'
p249
sS'H1'
p250
S"<class 'gluon.html.H1'>"
p251
sS'H6'
p252
S"<class 'gluon.html.H6'>"
p253
sS'H4'
p254
S"<class 'gluon.html.H4'>"
p255
sS'H5'
p256
S"<class 'gluon.html.H5'>"
p257
sS'UL'
p258
S"<class 'gluon.html.UL'>"
p259
sS'IS_UPPER'
p260
S"<class 'gluon.validators.IS_UPPER'>"
p261
sS'xmlescape'
p262
S'<function xmlescape>'
p263
sS'IS_TIME'
p264
S"<class 'gluon.validators.IS_TIME'>"
p265
sS'OPTION'
p266
S"<class 'gluon.html.OPTION'>"
p267
sS'TITLE'
p268
S"<class 'gluon.html.TITLE'>"
p269
sS'CRYPT'
p270
S"<class 'gluon.validators.CRYPT'>"
p271
sS'IS_EMPTY_OR'
p272
S"<class 'gluon.validators.IS_EMPTY_OR'>"
p273
sS'MARKMIN'
p274
S"<class 'gluon.html.MARKMIN'>"
p275
sS'contrato'
p276
S'<Row {\'recebimento\': <Set ("recebimento"."contra...UM MIL REAIS \', \'id\': 24L, \'dia_vencimento\': 4L}>'
p277
sS'__name__'
p278
S"'__restricted__'"
p279
sS'STRONG'
p280
S"<class 'gluon.html.STRONG'>"
p281
sS'COL'
p282
S"<class 'gluon.html.COL'>"
p283
sS'SCRIPT'
p284
S"<class 'gluon.html.SCRIPT'>"
p285
sS'_subitem'
p286
S"(<lazyT 'Contratos novos'>, False, '/localfs/contrato/#', [])"
p287
sS'TABLE'
p288
S"<class 'gluon.html.TABLE'>"
p289
sS'IS_IPV4'
p290
S"<class 'gluon.validators.IS_IPV4'>"
p291
sS'IS_LENGTH'
p292
S"<class 'gluon.validators.IS_LENGTH'>"
p293
sS'IS_IPV6'
p294
S"<class 'gluon.validators.IS_IPV6'>"
p295
sS'XML'
p296
S"<class 'gluon.html.XML'>"
p297
sS'locador'
p298
S"<Row {'complemento': 'SALA 1', 'contrato_aluguel...RUA ALENCAR PEIXOTO', 'tipo_pessoa': 'JURIDICA'}>"
p299
sS'B'
S"<class 'gluon.html.B'>"
p300
sS'IMG'
p301
S"<class 'gluon.html.IMG'>"
p302
sS'SQLTABLE'
p303
S"<class 'gluon.sqlhtml.SQLTABLE'>"
p304
sS'IS_MATCH'
p305
S"<class 'gluon.validators.IS_MATCH'>"
p306
sS'IS_ALPHANUMERIC'
p307
S"<class 'gluon.validators.IS_ALPHANUMERIC'>"
p308
sS'SPAN'
p309
S"<class 'gluon.html.SPAN'>"
p310
sS'IS_JSON'
p311
S"<class 'gluon.validators.IS_JSON'>"
p312
sS'IS_IPADDRESS'
p313
S"<class 'gluon.validators.IS_IPADDRESS'>"
p314
sS'IS_SLUG'
p315
S"<class 'gluon.validators.IS_SLUG'>"
p316
sS'BEAUTIFY'
p317
S"<class 'gluon.html.BEAUTIFY'>"
p318
sS'META'
p319
S"<class 'gluon.html.META'>"
p320
sS'BUTTON'
p321
S"<class 'gluon.html.BUTTON'>"
p322
sS'IS_DATE'
p323
S"<class 'gluon.validators.IS_DATE'>"
p324
sS'IS_EMAIL'
p325
S"<class 'gluon.validators.IS_EMAIL'>"
p326
sS'IS_NOT_EMPTY'
p327
S"<class 'gluon.validators.IS_NOT_EMPTY'>"
p328
sS'xrange'
p329
S"<type 'xrange'>"
p330
sS'TBODY'
p331
S"<class 'gluon.html.TBODY'>"
p332
sS'CAT'
p333
S"<class 'gluon.html.CAT'>"
p334
sS'Field'
p335
S"<class 'pydal.objects.Field'>"
p336
sS'IS_LIST_OF_EMAILS'
p337
S"<class 'gluon.validators.IS_LIST_OF_EMAILS'>"
p338
sg58
S"<Storage {'function': 'gerar_contrato', 'cookies...e, 'is_https': True, 'client': '177.37.231.221'}>"
p339
sS'DIV'
p340
S"<class 'gluon.html.DIV'>"
p341
sS'LEGEND'
p342
S"<class 'gluon.html.LEGEND'>"
p343
sS'to_native'
p344
S'<function to_native>'
p345
sS'COLGROUP'
p346
S"<class 'gluon.html.COLGROUP'>"
p347
sS'DAL'
p348
S"<class 'pydal.base.DAL'>"
p349
sS'ASSIGNJS'
p350
S'<function ASSIGNJS>'
p351
sS'TR'
p352
S"<class 'gluon.html.TR'>"
p353
sS'LI'
p354
S"<class 'gluon.html.LI'>"
p355
sS'imovel'
p356
S'<Row {\'recebimento\': <Set ("recebimento"."imovel...\', \'id\': 73L, \'lougradouro\': \'RUA  RUI BARBOSA\'}>'
p357
sS'TH'
p358
S"<class 'gluon.html.TH'>"
p359
sS'TD'
p360
S"<class 'gluon.html.TD'>"
p361
sS'IS_URL'
p362
S"<class 'gluon.validators.IS_URL'>"
p363
sS'A'
S"<class 'gluon.html.A'>"
p364
sS'HEAD'
p365
S"<class 'gluon.html.HEAD'>"
p366
sS'IS_DATETIME_IN_RANGE'
p367
S"<class 'gluon.validators.IS_DATETIME_IN_RANGE'>"
p368
sS'FORM'
p369
S"<class 'gluon.html.FORM'>"
p370
sS'I'
S"<class 'gluon.html.I'>"
p371
sS'IS_NOT_IN_DB'
p372
S"<class 'gluon.validators.IS_NOT_IN_DB'>"
p373
sg123
S"<Storage {'body': <cStringIO.StringO object at 0...5862a8>, 'view': 'contrato/gerar_contrato.html'}>"
p374
sS'THEAD'
p375
S"<class 'gluon.html.THEAD'>"
p376
sS'ANY_OF'
p377
S"<class 'gluon.validators.ANY_OF'>"
p378
sS'IS_NULL_OR'
p379
S"<class 'gluon.validators.IS_EMPTY_OR'>"
p380
sS'IS_FLOAT_IN_RANGE'
p381
S"<class 'gluon.validators.IS_FLOAT_IN_RANGE'>"
p382
sS'IS_EXPR'
p383
S"<class 'gluon.validators.IS_EXPR'>"
p384
sS'T'
S'<gluon.languages.translator object>'
p385
sS'IS_IN_SET'
p386
S"<class 'gluon.validators.IS_IN_SET'>"
p387
sS'IS_UPLOAD_FILENAME'
p388
S"<class 'gluon.validators.IS_UPLOAD_FILENAME'>"
p389
sS'locatario'
p390
S"<Row {'complemento': '', 'contrato_aluguel': <Se...MAS DE MENEZES', 'tipo_pessoa': 'F\\xc3\\x8dSICA'}>"
p391
sS'TT'
p392
S"<class 'gluon.html.TT'>"
p393
sS'IS_DECIMAL_IN_RANGE'
p394
S"<class 'gluon.validators.IS_DECIMAL_IN_RANGE'>"
p395
sssS'traceback'
p396
S'Traceback (most recent call last):\n  File "/home/rogoberto/web2py/gluon/restricted.py", line 219, in restricted\n    exec(ccode, environment)\n  File "/home/rogoberto/web2py/applications/localfs/views/contrato/gerar_contrato.html", line 436, in <module>\nTypeError: object of type \'NoneType\' has no len()\n'
p397
s.