(dp1
S'output'
p2
S'<type \'exceptions.ValueError\'> invalid literal for int() with base 10: "<Row {\'tipo_pagamento\': \'DINHEIRO\', \'quitado\': False, \'data_pagamento\': datetime.date(2020, 5, 30), \'contrato_aluguel\': 40L, \'data_vencimento\': datetime.date(2020, 5, 30), \'imovel\': 66L, \'juros\': 0.0,"'
p3
sS'layer'
p4
S'/home/rogoberto/web2py/applications/localfs/controllers/contrato.py'
p5
sS'code'
p6
S'<code object <module> at 0x7fcc254984b0, file "/home/rogoberto/web2py/applications/localfs/controllers/contrato.py", line 2>'
p7
sS'snapshot'
p8
(dp9
S'exception'
p10
(dp11
S'__getslice__'
p12
S"<method-wrapper '__getslice__' of exceptions.ValueError object>"
p13
sS'__str__'
p14
S"<method-wrapper '__str__' of exceptions.ValueError object>"
p15
sS'__reduce__'
p16
S'<built-in method __reduce__ of exceptions.ValueError object>'
p17
sS'__dict__'
p18
S'{}'
p19
sS'message'
p20
S'\'invalid literal for int() with base 10: "<Row {\\\'....date(2020, 5, 30), \\\'imovel\\\': 66L, \\\'juros\\\': 0.0,"\''
p21
sS'__sizeof__'
p22
S'<built-in method __sizeof__ of exceptions.ValueError object>'
p23
sS'__init__'
p24
S"<method-wrapper '__init__' of exceptions.ValueError object>"
p25
sS'__setattr__'
p26
S"<method-wrapper '__setattr__' of exceptions.ValueError object>"
p27
sS'__reduce_ex__'
p28
S'<built-in method __reduce_ex__ of exceptions.ValueError object>'
p29
sS'__new__'
p30
S'<built-in method __new__ of type object>'
p31
sS'__format__'
p32
S'<built-in method __format__ of exceptions.ValueError object>'
p33
sS'__class__'
p34
S"<type 'exceptions.ValueError'>"
p35
sS'__doc__'
p36
S"'Inappropriate argument value (of correct type).'"
p37
sS'__getitem__'
p38
S"<method-wrapper '__getitem__' of exceptions.ValueError object>"
p39
sS'__setstate__'
p40
S'<built-in method __setstate__ of exceptions.ValueError object>'
p41
sS'__getattribute__'
p42
S"<method-wrapper '__getattribute__' of exceptions.ValueError object>"
p43
sS'args'
p44
S'(\'invalid literal for int() with base 10: "<Row {\\\'....date(2020, 5, 30), \\\'imovel\\\': 66L, \\\'juros\\\': 0.0,"\',)'
p45
sS'__subclasshook__'
p46
S'<built-in method __subclasshook__ of type object>'
p47
sS'__unicode__'
p48
S'<built-in method __unicode__ of exceptions.ValueError object>'
p49
sS'__delattr__'
p50
S"<method-wrapper '__delattr__' of exceptions.ValueError object>"
p51
sS'__repr__'
p52
S"<method-wrapper '__repr__' of exceptions.ValueError object>"
p53
sS'__hash__'
p54
S"<method-wrapper '__hash__' of exceptions.ValueError object>"
p55
ssS'evalue'
p56
S'invalid literal for int() with base 10: "<Row {\'tipo_pagamento\': \'DINHEIRO\', \'quitado\': False, \'data_pagamento\': datetime.date(2020, 5, 30), \'contrato_aluguel\': 40L, \'data_vencimento\': datetime.date(2020, 5, 30), \'imovel\': 66L, \'juros\': 0.0,"'
p57
sS'request'
p58
cgluon.html
XML_unpickle
p59
(S'sec\x00\x00<div><table><tr><td style="font-weight:bold;vertical-align:top;">ajax</td><td style="vertical-align:top;">:</td><td><div>False</div></td></tr><tr><td style="font-weight:bold;vertical-align:top;">application</td><td style="vertical-align:top;">:</td><td><div>localfs</div></td></tr><tr><td style="font-weight:bold;vertical-align:top;">args</td><td style="vertical-align:top;">:</td><td><div><table><tr><td><div>40</div></td></tr></table></div></td></tr><tr><td style="font-weight:bold;vertical-align:top;">cid</td><td style="vertical-align:top;">:</td><td><div>None</div></td></tr><tr><td style="font-weight:bold;vertical-align:top;">client</td><td style="vertical-align:top;">:</td><td><div>177.37.224.245</div></td></tr><tr><td style="font-weight:bold;vertical-align:top;">controller</td><td style="vertical-align:top;">:</td><td><div>contrato</div></td></tr><tr><td style="font-weight:bold;vertical-align:top;">cookies</td><td style="vertical-align:top;">:</td><td><div><table><tr><td style="font-weight:bold;vertical-align:top;">session_id_admin</td><td style="vertical-align:top;">:</td><td><div>177.37.224.245-705af80e-2ee4-4ef5-9e0d-7774e1b51bc7<table><tr><td style="font-weight:bold;vertical-align:top;">comment</td><td style="vertical-align:top;">:</td><td><div></div></td></tr><tr><td style="font-weight:bold;vertical-align:top;">domain</td><td style="vertical-align:top;">:</td><td><div></div></td></tr><tr><td style="font-weight:bold;vertical-align:top;">expires</td><td style="vertical-align:top;">:</td><td><div></div></td></tr><tr><td style="font-weight:bold;vertical-align:top;">httponly</td><td style="vertical-align:top;">:</td><td><div></div></td></tr><tr><td style="font-weight:bold;vertical-align:top;">max-age</td><td style="vertical-align:top;">:</td><td><div></div></td></tr><tr><td style="font-weight:bold;vertical-align:top;">path</td><td style="vertical-align:top;">:</td><td><div></div></td></tr><tr><td style="font-weight:bold;vertical-align:top;">secure</td><td style="vertical-align:top;">:</td><td><div></div></td></tr><tr><td style="font-weight:bold;vertical-align:top;">version</td><td style="vertical-align:top;">:</td><td><div></div></td></tr></table></div></td></tr><tr><td style="font-weight:bold;vertical-align:top;">session_id_aluminum</td><td style="vertical-align:top;">:</td><td><div>177.37.224.245-c13c214c-3b1a-4991-83f7-16f1205798d3<table><tr><td style="font-weight:bold;vertical-align:top;">comment</td><td style="vertical-align:top;">:</td><td><div></div></td></tr><tr><td style="font-weight:bold;vertical-align:top;">domain</td><td style="vertical-align:top;">:</td><td><div></div></td></tr><tr><td style="font-weight:bold;vertical-align:top;">expires</td><td style="vertical-align:top;">:</td><td><div></div></td></tr><tr><td style="font-weight:bold;vertical-align:top;">httponly</td><td style="vertical-align:top;">:</td><td><div></div></td></tr><tr><td style="font-weight:bold;vertical-align:top;">max-age</td><td style="vertical-align:top;">:</td><td><div></div></td></tr><tr><td style="font-weight:bold;vertical-align:top;">path</td><td style="vertical-align:top;">:</td><td><div></div></td></tr><tr><td style="font-weight:bold;vertical-align:top;">secure</td><td style="vertical-align:top;">:</td><td><div></div></td></tr><tr><td style="font-weight:bold;vertical-align:top;">version</td><td style="vertical-align:top;">:</td><td><div></div></td></tr></table></div></td></tr><tr><td style="font-weight:bold;vertical-align:top;">session_id_comercio_cariri</td><td style="vertical-align:top;">:</td><td><div>177.37.225.101-47475468-6f5a-4bb5-a688-91b48c1d94bb<table><tr><td style="font-weight:bold;vertical-align:top;">comment</td><td style="vertical-align:top;">:</td><td><div></div></td></tr><tr><td style="font-weight:bold;vertical-align:top;">domain</td><td style="vertical-align:top;">:</td><td><div></div></td></tr><tr><td style="font-weight:bold;vertical-align:top;">expires</td><td style="vertical-align:top;">:</td><td><div></div></td></tr><tr><td style="font-weight:bold;vertical-align:top;">httponly</td><td style="vertical-align:top;">:</td><td><div></div></td></tr><tr><td style="font-weight:bold;vertical-align:top;">max-age</td><td style="vertical-align:top;">:</td><td><div></div></td></tr><tr><td style="font-weight:bold;vertical-align:top;">path</td><td style="vertical-align:top;">:</td><td><div></div></td></tr><tr><td style="font-weight:bold;vertical-align:top;">secure</td><td style="vertical-align:top;">:</td><td><div></div></td></tr><tr><td style="font-weight:bold;vertical-align:top;">version</td><td style="vertical-align:top;">:</td><td><div></div></td></tr></table></div></td></tr><tr><td style="font-weight:bold;vertical-align:top;">session_id_localfs</td><td style="vertical-align:top;">:</td><td><div>177.37.224.245-a00a2afa-2780-4458-8a30-67cd31b759a3<table><tr><td style="font-weight:bold;vertical-align:top;">comment</td><td style="vertical-align:top;">:</td><td><div></div></td></tr><tr><td style="font-weight:bold;vertical-align:top;">domain</td><td style="vertical-align:top;">:</td><td><div></div></td></tr><tr><td style="font-weight:bold;vertical-align:top;">expires</td><td style="vertical-align:top;">:</td><td><div></div></td></tr><tr><td style="font-weight:bold;vertical-align:top;">httponly</td><td style="vertical-align:top;">:</td><td><div></div></td></tr><tr><td style="font-weight:bold;vertical-align:top;">max-age</td><td style="vertical-align:top;">:</td><td><div></div></td></tr><tr><td style="font-weight:bold;vertical-align:top;">path</td><td style="vertical-align:top;">:</td><td><div></div></td></tr><tr><td style="font-weight:bold;vertical-align:top;">secure</td><td style="vertical-align:top;">:</td><td><div></div></td></tr><tr><td style="font-weight:bold;vertical-align:top;">version</td><td style="vertical-align:top;">:</td><td><div></div></td></tr></table></div></td></tr></table></div></td></tr><tr><td style="font-weight:bold;vertical-align:top;">env</td><td style="vertical-align:top;">:</td><td><div><table><tr><td style="font-weight:bold;vertical-align:top;">CONTENT_LENGTH</td><td style="vertical-align:top;">:</td><td><div></div></td></tr><tr><td style="font-weight:bold;vertical-align:top;">CONTENT_TYPE</td><td style="vertical-align:top;">:</td><td><div></div></td></tr><tr><td style="font-weight:bold;vertical-align:top;">DOCUMENT_ROOT</td><td style="vertical-align:top;">:</td><td><div>/usr/local/openresty/nginx/html</div></td></tr><tr><td style="font-weight:bold;vertical-align:top;">HTTPS</td><td style="vertical-align:top;">:</td><td><div>on</div></td></tr><tr><td style="font-weight:bold;vertical-align:top;">HTTP_ACCEPT</td><td style="vertical-align:top;">:</td><td><div>text/html,application/xhtml+xml,application/xml;q=0.9,image/webp,image/apng,*/*;q=0.8,application/signed-exchange;v=b3;q=0.9</div></td></tr><tr><td style="font-weight:bold;vertical-align:top;">HTTP_ACCEPT_ENCODING</td><td style="vertical-align:top;">:</td><td><div>gzip, deflate, br</div></td></tr><tr><td style="font-weight:bold;vertical-align:top;">HTTP_ACCEPT_LANGUAGE</td><td style="vertical-align:top;">:</td><td><div>pt-BR,pt;q=0.9,en-US;q=0.8,en;q=0.7</div></td></tr><tr><td style="font-weight:bold;vertical-align:top;">HTTP_CONNECTION</td><td style="vertical-align:top;">:</td><td><div>close</div></td></tr><tr><td style="font-weight:bold;vertical-align:top;">HTTP_COOKIE</td><td style="vertical-align:top;">:</td><td><div>_ga=GA1.2.786035724.1591068301; session_id_comercio_cariri=177.37.225.101-47475468-6f5a-4bb5-a688-91b48c1d94bb; session_id_admin=177.37.224.245-705af80e-2ee4-4ef5-9e0d-7774e1b51bc7; session_id_localfs=177.37.224.245-a00a2afa-2780-4458-8a30-67cd31b759a3; _gid=GA1.2.1997354701.1594492168; session_id_aluminum=177.37.224.245-c13c214c-3b1a-4991-83f7-16f1205798d3</div></td></tr><tr><td style="font-weight:bold;vertical-align:top;">HTTP_HOST</td><td style="vertical-align:top;">:</td><td><div>rogoberto.pythonanywhere.com</div></td></tr><tr><td style="font-weight:bold;vertical-align:top;">HTTP_REFERER</td><td style="vertical-align:top;">:</td><td><div>https://rogoberto.pythonanywhere.com/localfs/contrato/todos_contratos</div></td></tr><tr><td style="font-weight:bold;vertical-align:top;">HTTP_SEC_FETCH_DEST</td><td style="vertical-align:top;">:</td><td><div>document</div></td></tr><tr><td style="font-weight:bold;vertical-align:top;">HTTP_SEC_FETCH_MODE</td><td style="vertical-align:top;">:</td><td><div>navigate</div></td></tr><tr><td style="font-weight:bold;vertical-align:top;">HTTP_SEC_FETCH_SITE</td><td style="vertical-align:top;">:</td><td><div>same-origin</div></td></tr><tr><td style="font-weight:bold;vertical-align:top;">HTTP_UPGRADE_INSECURE_REQUESTS</td><td style="vertical-align:top;">:</td><td><div>1</div></td></tr><tr><td style="font-weight:bold;vertical-align:top;">HTTP_USER_AGENT</td><td style="vertical-align:top;">:</td><td><div>Mozilla/5.0 (Windows NT 6.1; Win64; x64) AppleWebKit/537.36 (KHTML, like Gecko) Chrome/83.0.4103.116 Safari/537.36</div></td></tr><tr><td style="font-weight:bold;vertical-align:top;">HTTP_X_FORWARDED_FOR</td><td style="vertical-align:top;">:</td><td><div>177.37.224.245</div></td></tr><tr><td style="font-weight:bold;vertical-align:top;">HTTP_X_REAL_IP</td><td style="vertical-align:top;">:</td><td><div>177.37.224.245</div></td></tr><tr><td style="font-weight:bold;vertical-align:top;">PATH_INFO</td><td style="vertical-align:top;">:</td><td><div>/localfs/contrato/alterar_contrato/40</div></td></tr><tr><td style="font-weight:bold;vertical-align:top;">QUERY_STRING</td><td style="vertical-align:top;">:</td><td><div></div></td></tr><tr><td style="font-weight:bold;vertical-align:top;">REMOTE_ADDR</td><td style="vertical-align:top;">:</td><td><div>10.0.0.52</div></td></tr><tr><td style="font-weight:bold;vertical-align:top;">REMOTE_PORT</td><td style="vertical-align:top;">:</td><td><div>52756</div></td></tr><tr><td style="font-weight:bold;vertical-align:top;">REQUEST_METHOD</td><td style="vertical-align:top;">:</td><td><div>GET</div></td></tr><tr><td style="font-weight:bold;vertical-align:top;">REQUEST_URI</td><td style="vertical-align:top;">:</td><td><div>/localfs/contrato/alterar_contrato/40</div></td></tr><tr><td style="font-weight:bold;vertical-align:top;">SCRIPT_NAME</td><td style="vertical-align:top;">:</td><td><div></div></td></tr><tr><td style="font-weight:bold;vertical-align:top;">SERVER_NAME</td><td style="vertical-align:top;">:</td><td><div>rogoberto.pythonanywhere.com</div></td></tr><tr><td style="font-weight:bold;vertical-align:top;">SERVER_PORT</td><td style="vertical-align:top;">:</td><td><div>443</div></td></tr><tr><td style="font-weight:bold;vertical-align:top;">SERVER_PROTOCOL</td><td style="vertical-align:top;">:</td><td><div>HTTP/1.1</div></td></tr><tr><td style="font-weight:bold;vertical-align:top;">app_folders</td><td style="vertical-align:top;">:</td><td><div>set([&#x27;/home/rogoberto/web2py/applications/aluminum/&#x27;, &#x27;/home/rogoberto/web2py/applications/localfs/&#x27;, &#x27;/home/rogoberto/web2py/applications/admin/&#x27;])</div></td></tr><tr><td style="font-weight:bold;vertical-align:top;">applications_parent</td><td style="vertical-align:top;">:</td><td><div>/home/rogoberto/web2py</div></td></tr><tr><td style="font-weight:bold;vertical-align:top;">content_length</td><td style="vertical-align:top;">:</td><td><div></div></td></tr><tr><td style="font-weight:bold;vertical-align:top;">content_type</td><td style="vertical-align:top;">:</td><td><div></div></td></tr><tr><td style="font-weight:bold;vertical-align:top;">db_sessions</td><td style="vertical-align:top;">:</td><td><div>set([])</div></td></tr><tr><td style="font-weight:bold;vertical-align:top;">debugging</td><td style="vertical-align:top;">:</td><td><div>True</div></td></tr><tr><td style="font-weight:bold;vertical-align:top;">document_root</td><td style="vertical-align:top;">:</td><td><div>/usr/local/openresty/nginx/html</div></td></tr><tr><td style="font-weight:bold;vertical-align:top;">gluon_parent</td><td style="vertical-align:top;">:</td><td><div>/home/rogoberto/web2py</div></td></tr><tr><td style="font-weight:bold;vertical-align:top;">http_accept</td><td style="vertical-align:top;">:</td><td><div>text/html,application/xhtml+xml,application/xml;q=0.9,image/webp,image/apng,*/*;q=0.8,application/signed-exchange;v=b3;q=0.9</div></td></tr><tr><td style="font-weight:bold;vertical-align:top;">http_accept_encoding</td><td style="vertical-align:top;">:</td><td><div>gzip, deflate, br</div></td></tr><tr><td style="font-weight:bold;vertical-align:top;">http_accept_language</td><td style="vertical-align:top;">:</td><td><div>pt-BR,pt;q=0.9,en-US;q=0.8,en;q=0.7</div></td></tr><tr><td style="font-weight:bold;vertical-align:top;">http_connection</td><td style="vertical-align:top;">:</td><td><div>close</div></td></tr><tr><td style="font-weight:bold;vertical-align:top;">http_cookie</td><td style="vertical-align:top;">:</td><td><div>_ga=GA1.2.786035724.1591068301; session_id_comercio_cariri=177.37.225.101-47475468-6f5a-4bb5-a688-91b48c1d94bb; session_id_admin=177.37.224.245-705af80e-2ee4-4ef5-9e0d-7774e1b51bc7; session_id_localfs=177.37.224.245-a00a2afa-2780-4458-8a30-67cd31b759a3; _gid=GA1.2.1997354701.1594492168; session_id_aluminum=177.37.224.245-c13c214c-3b1a-4991-83f7-16f1205798d3</div></td></tr><tr><td style="font-weight:bold;vertical-align:top;">http_host</td><td style="vertical-align:top;">:</td><td><div>rogoberto.pythonanywhere.com</div></td></tr><tr><td style="font-weight:bold;vertical-align:top;">http_referer</td><td style="vertical-align:top;">:</td><td><div>https://rogoberto.pythonanywhere.com/localfs/contrato/todos_contratos</div></td></tr><tr><td style="font-weight:bold;vertical-align:top;">http_sec_fetch_dest</td><td style="vertical-align:top;">:</td><td><div>document</div></td></tr><tr><td style="font-weight:bold;vertical-align:top;">http_sec_fetch_mode</td><td style="vertical-align:top;">:</td><td><div>navigate</div></td></tr><tr><td style="font-weight:bold;vertical-align:top;">http_sec_fetch_site</td><td style="vertical-align:top;">:</td><td><div>same-origin</div></td></tr><tr><td style="font-weight:bold;vertical-align:top;">http_upgrade_insecure_requests</td><td style="vertical-align:top;">:</td><td><div>1</div></td></tr><tr><td style="font-weight:bold;vertical-align:top;">http_user_agent</td><td style="vertical-align:top;">:</td><td><div>Mozilla/5.0 (Windows NT 6.1; Win64; x64) AppleWebKit/537.36 (KHTML, like Gecko) Chrome/83.0.4103.116 Safari/537.36</div></td></tr><tr><td style="font-weight:bold;vertical-align:top;">http_x_forwarded_for</td><td style="vertical-align:top;">:</td><td><div>177.37.224.245</div></td></tr><tr><td style="font-weight:bold;vertical-align:top;">http_x_real_ip</td><td style="vertical-align:top;">:</td><td><div>177.37.224.245</div></td></tr><tr><td style="font-weight:bold;vertical-align:top;">https</td><td style="vertical-align:top;">:</td><td><div>on</div></td></tr><tr><td style="font-weight:bold;vertical-align:top;">is_jython</td><td style="vertical-align:top;">:</td><td><div>False</div></td></tr><tr><td style="font-weight:bold;vertical-align:top;">is_py2</td><td style="vertical-align:top;">:</td><td><div>True</div></td></tr><tr><td style="font-weight:bold;vertical-align:top;">is_pypy</td><td style="vertical-align:top;">:</td><td><div>False</div></td></tr><tr><td style="font-weight:bold;vertical-align:top;">is_source</td><td style="vertical-align:top;">:</td><td><div>True</div></td></tr><tr><td style="font-weight:bold;vertical-align:top;">local_hosts</td><td style="vertical-align:top;">:</td><td><div><table><tr><td><div>35.173.69.207</div></td></tr><tr><td><div>::ffff:127.0.0.1</div></td></tr><tr><td><div>::1</div></td></tr><tr><td><div>rogoberto.pythonanywhere.com</div></td></tr><tr><td><div>127.0.0.1</div></td></tr><tr><td><div>green-liveweb14</div></td></tr><tr><td><div>localhost</div></td></tr></table></div></td></tr><tr><td style="font-weight:bold;vertical-align:top;">path_info</td><td style="vertical-align:top;">:</td><td><div>/localfs/contrato/alterar_contrato/40</div></td></tr><tr><td style="font-weight:bold;vertical-align:top;">query_string</td><td style="vertical-align:top;">:</td><td><div></div></td></tr><tr><td style="font-weight:bold;vertical-align:top;">remote_addr</td><td style="vertical-align:top;">:</td><td><div>10.0.0.52</div></td></tr><tr><td style="font-weight:bold;vertical-align:top;">remote_port</td><td style="vertical-align:top;">:</td><td><div>52756</div></td></tr><tr><td style="font-weight:bold;vertical-align:top;">request_method</td><td style="vertical-align:top;">:</td><td><div>GET</div></td></tr><tr><td style="font-weight:bold;vertical-align:top;">request_uri</td><td style="vertical-align:top;">:</td><td><div>/localfs/contrato/alterar_contrato/40</div></td></tr><tr><td style="font-weight:bold;vertical-align:top;">script_name</td><td style="vertical-align:top;">:</td><td><div></div></td></tr><tr><td style="font-weight:bold;vertical-align:top;">server_name</td><td style="vertical-align:top;">:</td><td><div>rogoberto.pythonanywhere.com</div></td></tr><tr><td style="font-weight:bold;vertical-align:top;">server_port</td><td style="vertical-align:top;">:</td><td><div>443</div></td></tr><tr><td style="font-weight:bold;vertical-align:top;">server_protocol</td><td style="vertical-align:top;">:</td><td><div>HTTP/1.1</div></td></tr><tr><td style="font-weight:bold;vertical-align:top;">uwsgi.node</td><td style="vertical-align:top;">:</td><td><div>green-liveweb14</div></td></tr><tr><td style="font-weight:bold;vertical-align:top;">uwsgi.version</td><td style="vertical-align:top;">:</td><td><div>2.0.17.1</div></td></tr><tr><td style="font-weight:bold;vertical-align:top;">uwsgi_node</td><td style="vertical-align:top;">:</td><td><div>green-liveweb14</div></td></tr><tr><td style="font-weight:bold;vertical-align:top;">uwsgi_version</td><td style="vertical-align:top;">:</td><td><div>2.0.17.1</div></td></tr><tr><td style="font-weight:bold;vertical-align:top;">web2py_path</td><td style="vertical-align:top;">:</td><td><div>/home/rogoberto/web2py</div></td></tr><tr><td style="font-weight:bold;vertical-align:top;">web2py_version</td><td style="vertical-align:top;">:</td><td><div>2.17.1-stable+timestamp.2018.08.06.01.02.56</div></td></tr><tr><td style="font-weight:bold;vertical-align:top;">wsgi.errors</td><td style="vertical-align:top;">:</td><td><div>&lt;uwsgi_file__bin_user_wsgi_wrapper.ErrorLogFile object at 0x7fcc2c8edd10&gt;</div></td></tr><tr><td style="font-weight:bold;vertical-align:top;">wsgi.file_wrapper</td><td style="vertical-align:top;">:</td><td><div>&lt;built-in function uwsgi_sendfile&gt;</div></td></tr><tr><td style="font-weight:bold;vertical-align:top;">wsgi.input</td><td style="vertical-align:top;">:</td><td><div>&lt;uwsgi._Input object at 0x7fcc2dcfdd80&gt;</div></td></tr><tr><td style="font-weight:bold;vertical-align:top;">wsgi.multiprocess</td><td style="vertical-align:top;">:</td><td><div>False</div></td></tr><tr><td style="font-weight:bold;vertical-align:top;">wsgi.multithread</td><td style="vertical-align:top;">:</td><td><div>False</div></td></tr><tr><td style="font-weight:bold;vertical-align:top;">wsgi.run_once</td><td style="vertical-align:top;">:</td><td><div>False</div></td></tr><tr><td style="font-weight:bold;vertical-align:top;">wsgi.url_scheme</td><td style="vertical-align:top;">:</td><td><div>https</div></td></tr><tr><td style="font-weight:bold;vertical-align:top;">wsgi.version</td><td style="vertical-align:top;">:</td><td><div><table><tr><td><div>1</div></td></tr><tr><td><div>0</div></td></tr></table></div></td></tr><tr><td style="font-weight:bold;vertical-align:top;">wsgi_errors</td><td style="vertical-align:top;">:</td><td><div>&lt;uwsgi_file__bin_user_wsgi_wrapper.ErrorLogFile object at 0x7fcc2c8edd10&gt;</div></td></tr><tr><td style="font-weight:bold;vertical-align:top;">wsgi_file_wrapper</td><td style="vertical-align:top;">:</td><td><div>&lt;built-in function uwsgi_sendfile&gt;</div></td></tr><tr><td style="font-weight:bold;vertical-align:top;">wsgi_input</td><td style="vertical-align:top;">:</td><td><div>&lt;uwsgi._Input object at 0x7fcc2dcfdd80&gt;</div></td></tr><tr><td style="font-weight:bold;vertical-align:top;">wsgi_multiprocess</td><td style="vertical-align:top;">:</td><td><div>False</div></td></tr><tr><td style="font-weight:bold;vertical-align:top;">wsgi_multithread</td><td style="vertical-align:top;">:</td><td><div>False</div></td></tr><tr><td style="font-weight:bold;vertical-align:top;">wsgi_run_once</td><td style="vertical-align:top;">:</td><td><div>False</div></td></tr><tr><td style="font-weight:bold;vertical-align:top;">wsgi_url_scheme</td><td style="vertical-align:top;">:</td><td><div>https</div></td></tr><tr><td style="font-weight:bold;vertical-align:top;">wsgi_version</td><td style="vertical-align:top;">:</td><td><div><table><tr><td><div>1</div></td></tr><tr><td><div>0</div></td></tr></table></div></td></tr></table></div></td></tr><tr><td style="font-weight:bold;vertical-align:top;">extension</td><td style="vertical-align:top;">:</td><td><div>html</div></td></tr><tr><td style="font-weight:bold;vertical-align:top;">folder</td><td style="vertical-align:top;">:</td><td><div>/home/rogoberto/web2py/applications/localfs/</div></td></tr><tr><td style="font-weight:bold;vertical-align:top;">function</td><td style="vertical-align:top;">:</td><td><div>alterar_contrato</div></td></tr><tr><td style="font-weight:bold;vertical-align:top;">global_settings</td><td style="vertical-align:top;">:</td><td><div><table><tr><td style="font-weight:bold;vertical-align:top;">app_folders</td><td style="vertical-align:top;">:</td><td><div>set([&#x27;/home/rogoberto/web2py/applications/aluminum/&#x27;, &#x27;/home/rogoberto/web2py/applications/localfs/&#x27;, &#x27;/home/rogoberto/web2py/applications/admin/&#x27;])</div></td></tr><tr><td style="font-weight:bold;vertical-align:top;">applications_parent</td><td style="vertical-align:top;">:</td><td><div>/home/rogoberto/web2py</div></td></tr><tr><td style="font-weight:bold;vertical-align:top;">db_sessions</td><td style="vertical-align:top;">:</td><td><div>set([])</div></td></tr><tr><td style="font-weight:bold;vertical-align:top;">debugging</td><td style="vertical-align:top;">:</td><td><div>True</div></td></tr><tr><td style="font-weight:bold;vertical-align:top;">gluon_parent</td><td style="vertical-align:top;">:</td><td><div>/home/rogoberto/web2py</div></td></tr><tr><td style="font-weight:bold;vertical-align:top;">is_jython</td><td style="vertical-align:top;">:</td><td><div>False</div></td></tr><tr><td style="font-weight:bold;vertical-align:top;">is_py2</td><td style="vertical-align:top;">:</td><td><div>True</div></td></tr><tr><td style="font-weight:bold;vertical-align:top;">is_pypy</td><td style="vertical-align:top;">:</td><td><div>False</div></td></tr><tr><td style="font-weight:bold;vertical-align:top;">is_source</td><td style="vertical-align:top;">:</td><td><div>True</div></td></tr><tr><td style="font-weight:bold;vertical-align:top;">local_hosts</td><td style="vertical-align:top;">:</td><td><div><table><tr><td><div>35.173.69.207</div></td></tr><tr><td><div>::ffff:127.0.0.1</div></td></tr><tr><td><div>::1</div></td></tr><tr><td><div>rogoberto.pythonanywhere.com</div></td></tr><tr><td><div>127.0.0.1</div></td></tr><tr><td><div>green-liveweb14</div></td></tr><tr><td><div>localhost</div></td></tr></table></div></td></tr><tr><td style="font-weight:bold;vertical-align:top;">web2py_version</td><td style="vertical-align:top;">:</td><td><div>2.17.1-stable+timestamp.2018.08.06.01.02.56</div></td></tr></table></div></td></tr><tr><td style="font-weight:bold;vertical-align:top;">is_https</td><td style="vertical-align:top;">:</td><td><div>True</div></td></tr><tr><td style="font-weight:bold;vertical-align:top;">is_local</td><td style="vertical-align:top;">:</td><td><div>False</div></td></tr><tr><td style="font-weight:bold;vertical-align:top;">is_restful</td><td style="vertical-align:top;">:</td><td><div>False</div></td></tr><tr><td style="font-weight:bold;vertical-align:top;">is_scheduler</td><td style="vertical-align:top;">:</td><td><div>False</div></td></tr><tr><td style="font-weight:bold;vertical-align:top;">is_shell</td><td style="vertical-align:top;">:</td><td><div>False</div></td></tr><tr><td style="font-weight:bold;vertical-align:top;">method</td><td style="vertical-align:top;">:</td><td><div>GET</div></td></tr><tr><td style="font-weight:bold;vertical-align:top;">now</td><td style="vertical-align:top;">:</td><td><div>datetime.datetime(2020, 7, 11, 18, 51, 14, 615241)</div></td></tr><tr><td style="font-weight:bold;vertical-align:top;">raw_args</td><td style="vertical-align:top;">:</td><td><div>40</div></td></tr><tr><td style="font-weight:bold;vertical-align:top;">raw_extension</td><td style="vertical-align:top;">:</td><td><div>None</div></td></tr><tr><td style="font-weight:bold;vertical-align:top;">url</td><td style="vertical-align:top;">:</td><td><div>/localfs/contrato/alterar_contrato/40</div></td></tr><tr><td style="font-weight:bold;vertical-align:top;">utcnow</td><td style="vertical-align:top;">:</td><td><div>datetime.datetime(2020, 7, 11, 18, 51, 14, 615267)</div></td></tr><tr><td style="font-weight:bold;vertical-align:top;">wsgi</td><td style="vertical-align:top;">:</td><td><div>&lt;gluon.main.LazyWSGI object at 0x7fcc25ccec50&gt;</div></td></tr></table></div>'
tRp60
sS'frames'
p61
(lp62
(dp63
S'file'
p64
S'/home/rogoberto/web2py/gluon/restricted.py'
p65
sS'dump'
p66
(dp67
S'environment'
p68
S"{'A': <class 'gluon.html.A'>, 'ANY_OF': <class 'gluon.validators.ANY_OF'>, 'ASSIGNJS': <function ASSIGNJS>, 'AppConfig': <function AppConfig>, 'Auth': <class 'gluon.tools.Auth'>, 'B': <class 'gluon.html.B'>, 'BEAUTIFY': <class 'gluon.html.BEAUTIFY'>, 'BODY': <class 'gluon.html.BODY'>, 'BR': <class 'gluon.html.BR'>, 'BUTTON': <class 'gluon.html.BUTTON'>, ...}"
p69
sS'ccode'
p70
S'<code object <module> at 0x7fcc254984b0, file "/...cations/localfs/controllers/contrato.py", line 2>'
p71
ssS'lnum'
p72
I219
sS'lines'
p73
(dp74
I214
S'    if environment is None:'
p75
sI215
S'        environment = {}'
p76
sI216
S"    environment['__file__'] = layer"
p77
sI217
S"    environment['__name__'] = '__restricted__'"
p78
sI218
S'    try:'
p79
sI219
S'        exec(ccode, environment)'
p80
sI220
S'    except HTTP:'
p81
sI221
S'        raise'
p82
sI222
S'    except RestrictedError:'
p83
sI223
S'        # do not encapsulate (obfuscate) the original RestrictedError'
p84
ssS'call'
p85
S'(ccode=<code object <module> at 0x7fcc254984b0, file "/...cations/localfs/controllers/contrato.py", line 2>, environment={\'A\': <class \'gluon.html.A\'>, \'ANY_OF\': <class \'gluon.validators.ANY_OF\'>, \'ASSIGNJS\': <function ASSIGNJS>, \'AppConfig\': <function AppConfig>, \'Auth\': <class \'gluon.tools.Auth\'>, \'B\': <class \'gluon.html.B\'>, \'BEAUTIFY\': <class \'gluon.html.BEAUTIFY\'>, \'BODY\': <class \'gluon.html.BODY\'>, \'BR\': <class \'gluon.html.BR\'>, \'BUTTON\': <class \'gluon.html.BUTTON\'>, ...}, layer=\'/home/rogoberto/web2py/applications/localfs/controllers/contrato.py\', scode=<code object <module> at 0x7fcc254984b0, file "/...cations/localfs/controllers/contrato.py", line 2>)'
p86
sS'func'
p87
S'restricted'
p88
sa(dp89
g64
S'/home/rogoberto/web2py/applications/localfs/controllers/contrato.py'
p90
sg66
(dp91
sg72
I208
sg73
(dp92
I197
S''
sI198
S'@auth.requires_login()'
p93
sI199
S'def carne():'
p94
sI200
S"    #response.view = 'generic.html' # use a generic view"
p95
sI201
S'    contrato=db.contrato_aluguel(request.args(0, cast=int))'
p96
sI202
S'    locador=db.pessoa(contrato.locador)'
p97
sI203
S'    locatario=db.pessoa(contrato.locatario)'
p98
sI204
S'    imovel=db.imovel(contrato.imovel)'
p99
sI205
S'    rows = db(db.recebimento.contrato_aluguel==request.args(0, cast=int)).select(orderby=db.recebimento.data_vencimento)'
p100
sI206
S'    return  locals()'
p101
ssg85
S'()'
p102
sg87
S'<module>'
p103
sa(dp104
g64
S'/home/rogoberto/web2py/gluon/globals.py'
p105
sg66
(dp106
S'self'
p107
S'undefined'
p108
sS'f'
S'<function alterar_contrato>'
p109
ssg72
I421
sg73
(dp110
I416
S"        self.flash = ''            # used by the default view layout"
p111
sI417
S'        self.meta = Storage()      # used by web2py_ajax.html'
p112
sI418
S'        self.menu = []             # used by the default view layout'
p113
sI419
S'        self.files = []            # used by web2py_ajax.html'
p114
sI420
S'        self._vars = None'
p115
sI421
S'        self._caller = lambda f: f()'
p116
sI422
S'        self._view_environment = None'
p117
sI423
S'        self._custom_commit = None'
p118
sI424
S'        self._custom_rollback = None'
p119
sI425
S"        self.generic_patterns = ['*']"
p120
ssg85
S'(f=<function alterar_contrato>)'
p121
sg87
S'<lambda>'
p122
sa(dp123
g64
S'/home/rogoberto/web2py/gluon/tools.py'
p124
sg66
(dp125
S'action'
p126
S'<function alterar_contrato>'
p127
sS'a'
S'()'
p128
sS'b'
g19
ssg72
I3862
sg73
(dp129
I3857
S'                    flag = condition'
p130
sI3858
S'                if not flag:'
p131
sI3859
S'                    current.session.flash = self.messages.access_denied'
p132
sI3860
S'                    return call_or_redirect('
p133
sI3861
S'                        self.settings.on_failed_authorization)'
p134
sI3862
S'                return action(*a, **b)'
p135
sI3863
S'            f.__doc__ = action.__doc__'
p136
sI3864
S'            f.__name__ = action.__name__'
p137
sI3865
S'            f.__dict__.update(action.__dict__)'
p138
sI3866
S'            return f'
p139
ssg85
S'(*a=(), **b={})'
p140
sg87
S'f'
sa(dp141
g64
S'/home/rogoberto/web2py/applications/localfs/controllers/contrato.py'
p142
sg66
(dp143
S'contrato_aluguel'
p144
g108
sS'global request'
p145
S"<Storage {'function': 'alterar_contrato', 'cooki...e, 'is_https': True, 'client': '177.37.224.245'}>"
p146
sS'db.contrato_aluguel'
p147
S'<Table contrato_aluguel (id, imovel, locador, lo...valor, valor_ext, local_contrato, data_contrato)>'
p148
sS'request.args'
p149
S"['40']"
p150
sS'cast'
p151
g108
sS'global db'
p152
S'<DAL uri="sqlite://storage.sqlite">'
p153
sS'builtinint'
p154
S"<type 'int'>"
p155
ssg72
I83
sg73
(dp156
I78
S'@auth.requires_login()'
p157
sI79
S'def alterar_contrato():'
p158
sI80
S"    response.view = 'generic.html' # use a generic view"
p159
sI81
S''
sI82
S''
sI83
S'    contrato_aluguel=db.contrato_aluguel(request.args(0, cast=int))'
p160
sI84
S'    db.contrato_aluguel.id.readable = False'
p161
sI85
S'    db.contrato_aluguel.id.writable = False'
p162
sI86
S''
sI87
S'    num=(db((db.recebimento.contrato_aluguel==contrato_aluguel.id)&(db.recebimento.quitado==True)).select())'
p163
ssg85
S'()'
p164
sg87
S'alterar_contrato'
p165
sa(dp166
g64
S'/home/rogoberto/web2py/gluon/packages/dal/pydal/objects.py'
p167
sg66
(dp168
S'orderby_on_limitby'
p169
g108
sS').first'
p170
g108
sS'builtinFalse'
p171
S'False'
p172
ssg72
I586
sg73
(dp173
I581
S'            else:'
p174
sI582
S'                record = self._db(self._id == key).select('
p175
sI583
S'                    limitby=(0, 1),'
p176
sI584
S'                    for_update=for_update,'
p177
sI585
S'                    orderby=orderby,'
p178
sI586
S'                    orderby_on_limitby=False).first()'
p179
sI587
S'            if record:'
p180
sI588
S'                for k, v in iteritems(kwargs):'
p181
sI589
S'                    if record[k] != v:'
p182
sI590
S'                        return None'
p183
ssg85
S'(self=<Table contrato_aluguel (id, imovel, locador, lo...valor, valor_ext, local_contrato, data_contrato)>, key=40, **kwargs={})'
p184
sg87
S'__call__'
p185
sa(dp186
g64
S'/home/rogoberto/web2py/gluon/packages/dal/pydal/objects.py'
p187
sg66
(dp188
S'self.query'
p189
S'<Query ("contrato_aluguel"."id" = 40)>'
p190
sS'adapter.select'
p191
S'<bound method SQLite.select of <pydal.adapters.sqlite.SQLite object>>'
p192
sS'fields'
p193
S'[<pydal.objects.Field object>, <pydal.objects.Field object>, <pydal.objects.Field object>, <pydal.objects.Field object>, <pydal.objects.Field object>, <pydal.objects.Field object>, <pydal.objects.Field object>, <pydal.objects.Field object>, <pydal.objects.Field object>, <pydal.objects.Field object>, <pydal.objects.Field object>, <pydal.objects.Field object>, <pydal.objects.Field object>, <pydal.objects.Field object>, <pydal.objects.Field object>]'
p194
sS'adapter'
p195
S'<pydal.adapters.sqlite.SQLite object>'
p196
sS'attributes'
p197
S"{'for_update': False, 'limitby': (0, 1), 'orderby': None, 'orderby_on_limitby': False}"
p198
sS'self'
p199
S'<Set ("contrato_aluguel"."id" = 40)>'
p200
ssg72
I2277
sg73
(dp201
I2272
S"                                    attributes.get('join', None),"
p202
sI2273
S"                                    attributes.get('left', None),"
p203
sI2274
S"                                    attributes.get('orderby', None),"
p204
sI2275
S"                                    attributes.get('groupby', None))"
p205
sI2276
S'        fields = adapter.expand_all(fields, tablenames)'
p206
sI2277
S'        return adapter.select(self.query, fields, attributes)'
p207
sI2278
S''
sI2279
S'    def iterselect(self, *fields, **attributes):'
p208
sI2280
S'        adapter = self.db._adapter'
p209
sI2281
S'        tablenames = adapter.tables(self.query,'
p210
ssg85
S'(self=<Set ("contrato_aluguel"."id" = 40)>, *fields=[<pydal.objects.Field object>, <pydal.objects.Field object>, <pydal.objects.Field object>, <pydal.objects.Field object>, <pydal.objects.Field object>, <pydal.objects.Field object>, <pydal.objects.Field object>, <pydal.objects.Field object>, <pydal.objects.Field object>, <pydal.objects.Field object>, <pydal.objects.Field object>, <pydal.objects.Field object>, <pydal.objects.Field object>, <pydal.objects.Field object>, <pydal.objects.Field object>], **attributes={\'for_update\': False, \'limitby\': (0, 1), \'orderby\': None, \'orderby_on_limitby\': False})'
p211
sg87
S'select'
p212
sa(dp213
g64
S'/home/rogoberto/web2py/gluon/packages/dal/pydal/adapters/sqlite.py'
p214
sg66
(dp215
S'fields'
p216
S'[<pydal.objects.Field object>, <pydal.objects.Field object>, <pydal.objects.Field object>, <pydal.objects.Field object>, <pydal.objects.Field object>, <pydal.objects.Field object>, <pydal.objects.Field object>, <pydal.objects.Field object>, <pydal.objects.Field object>, <pydal.objects.Field object>, <pydal.objects.Field object>, <pydal.objects.Field object>, <pydal.objects.Field object>, <pydal.objects.Field object>, <pydal.objects.Field object>]'
p217
sS'self'
p218
S'<pydal.adapters.sqlite.SQLite object>'
p219
sS').select'
p220
S'<bound method SQLite.select of <pydal.adapters.sqlite.SQLite object>>'
p221
sS'attributes'
p222
S"{'for_update': False, 'limitby': (0, 1), 'orderby': None, 'orderby_on_limitby': False}"
p223
sS'query'
p224
S'<Query ("contrato_aluguel"."id" = 40)>'
p225
sS'builtinsuper'
p226
S"<type 'super'>"
p227
sS'global SQLite'
p228
S"<class 'pydal.adapters.sqlite.SQLite'>"
p229
ssg72
I82
sg73
(dp230
I77
S"            self.execute('PRAGMA foreign_keys=ON;')"
p231
sI78
S''
sI79
S'    def select(self, query, fields, attributes):'
p232
sI80
S"        if attributes.get('for_update', False) and 'cache' not in attributes:"
p233
sI81
S"            self.execute('BEGIN IMMEDIATE TRANSACTION;')"
p234
sI82
S'        return super(SQLite, self).select(query, fields, attributes)'
p235
sI83
S''
sI84
S'    def delete(self, table, query):'
p236
sI85
S'        db = self.db'
p237
sI86
S'        deleted = [x[table._id.name] for x in db(query).select(table._id)]'
p238
ssg85
S'(self=<pydal.adapters.sqlite.SQLite object>, query=<Query ("contrato_aluguel"."id" = 40)>, fields=[<pydal.objects.Field object>, <pydal.objects.Field object>, <pydal.objects.Field object>, <pydal.objects.Field object>, <pydal.objects.Field object>, <pydal.objects.Field object>, <pydal.objects.Field object>, <pydal.objects.Field object>, <pydal.objects.Field object>, <pydal.objects.Field object>, <pydal.objects.Field object>, <pydal.objects.Field object>, <pydal.objects.Field object>, <pydal.objects.Field object>, <pydal.objects.Field object>], attributes={\'for_update\': False, \'limitby\': (0, 1), \'orderby\': None, \'orderby_on_limitby\': False})'
p239
sg87
g212
sa(dp240
g64
S'/home/rogoberto/web2py/gluon/packages/dal/pydal/adapters/base.py'
p241
sg66
(dp242
S'self._select_aux'
p243
S'<bound method SQLite._select_aux of <pydal.adapters.sqlite.SQLite object>>'
p244
sS'fields'
p245
S'[<pydal.objects.Field object>, <pydal.objects.Field object>, <pydal.objects.Field object>, <pydal.objects.Field object>, <pydal.objects.Field object>, <pydal.objects.Field object>, <pydal.objects.Field object>, <pydal.objects.Field object>, <pydal.objects.Field object>, <pydal.objects.Field object>, <pydal.objects.Field object>, <pydal.objects.Field object>, <pydal.objects.Field object>, <pydal.objects.Field object>, <pydal.objects.Field object>]'
p246
sS'self'
p247
S'<pydal.adapters.sqlite.SQLite object>'
p248
sS'sql'
p249
S'\'SELECT "contrato_aluguel"."id", "contrato_alugue... ("contrato_aluguel"."id" = 40) LIMIT 1 OFFSET 0;\''
p250
sS'attributes'
p251
S"{'for_update': False, 'limitby': (0, 1), 'orderby': None, 'orderby_on_limitby': False}"
p252
sS'colnames'
p253
S"['contrato_aluguel.id', 'contrato_aluguel.imovel', 'contrato_aluguel.locador', 'contrato_aluguel.locatario', 'contrato_aluguel.avalista', 'contrato_aluguel.tipo', 'contrato_aluguel.virgencia_meses', 'contrato_aluguel.data_inicial', 'contrato_aluguel.data_final', 'contrato_aluguel.dia_vencimento', 'contrato_aluguel.data_inicial_cobranca', 'contrato_aluguel.valor', 'contrato_aluguel.valor_ext', 'contrato_aluguel.local_contrato', 'contrato_aluguel.data_contrato']"
p254
ssg72
I763
sg73
(dp255
I758
S'        colnames, sql = self._select_wcols(query, fields, **attributes)'
p256
sI759
S"        cache = attributes.get('cache', None)"
p257
sI760
S"        if cache and attributes.get('cacheable', False):"
p258
sI761
S'            return self._cached_select('
p259
sI762
S'                cache, sql, fields, attributes, colnames)'
p260
sI763
S'        return self._select_aux(sql, fields, attributes, colnames)'
p261
sI764
S''
sI765
S'    def iterselect(self, query, fields, attributes):'
p262
sI766
S'        colnames, sql = self._select_wcols(query, fields, **attributes)'
p263
sI767
S"        cacheable = attributes.get('cacheable', False)"
p264
ssg85
S'(self=<pydal.adapters.sqlite.SQLite object>, query=<Query ("contrato_aluguel"."id" = 40)>, fields=[<pydal.objects.Field object>, <pydal.objects.Field object>, <pydal.objects.Field object>, <pydal.objects.Field object>, <pydal.objects.Field object>, <pydal.objects.Field object>, <pydal.objects.Field object>, <pydal.objects.Field object>, <pydal.objects.Field object>, <pydal.objects.Field object>, <pydal.objects.Field object>, <pydal.objects.Field object>, <pydal.objects.Field object>, <pydal.objects.Field object>, <pydal.objects.Field object>], attributes={\'for_update\': False, \'limitby\': (0, 1), \'orderby\': None, \'orderby_on_limitby\': False})'
p265
sg87
g212
sa(dp266
g64
S'/home/rogoberto/web2py/gluon/packages/dal/pydal/adapters/base.py'
p267
sg66
(dp268
S'self'
p269
S'<pydal.adapters.sqlite.SQLite object>'
p270
sS'rows'
p271
g108
sS'self._select_aux_execute'
p272
S'<bound method SQLite._select_aux_execute of <pydal.adapters.sqlite.SQLite object>>'
p273
sS'sql'
p274
S'\'SELECT "contrato_aluguel"."id", "contrato_alugue... ("contrato_aluguel"."id" = 40) LIMIT 1 OFFSET 0;\''
p275
ssg72
I719
sg73
(dp276
I714
S'        return self.cursor.fetchall()'
p277
sI715
S''
sI716
S'    def _select_aux(self, sql, fields, attributes, colnames):'
p278
sI717
S"        cache = attributes.get('cache', None)"
p279
sI718
S'        if not cache:'
p280
sI719
S'            rows = self._select_aux_execute(sql)'
p281
sI720
S'        else:'
p282
sI721
S'            if isinstance(cache, dict):'
p283
sI722
S"                cache_model = cache['model']"
p284
sI723
S"                time_expire = cache['expiration']"
p285
ssg85
S'(self=<pydal.adapters.sqlite.SQLite object>, sql=\'SELECT "contrato_aluguel"."id", "contrato_alugue... ("contrato_aluguel"."id" = 40) LIMIT 1 OFFSET 0;\', fields=[<pydal.objects.Field object>, <pydal.objects.Field object>, <pydal.objects.Field object>, <pydal.objects.Field object>, <pydal.objects.Field object>, <pydal.objects.Field object>, <pydal.objects.Field object>, <pydal.objects.Field object>, <pydal.objects.Field object>, <pydal.objects.Field object>, <pydal.objects.Field object>, <pydal.objects.Field object>, <pydal.objects.Field object>, <pydal.objects.Field object>, <pydal.objects.Field object>], attributes={\'for_update\': False, \'limitby\': (0, 1), \'orderby\': None, \'orderby_on_limitby\': False}, colnames=[\'contrato_aluguel.id\', \'contrato_aluguel.imovel\', \'contrato_aluguel.locador\', \'contrato_aluguel.locatario\', \'contrato_aluguel.avalista\', \'contrato_aluguel.tipo\', \'contrato_aluguel.virgencia_meses\', \'contrato_aluguel.data_inicial\', \'contrato_aluguel.data_final\', \'contrato_aluguel.dia_vencimento\', \'contrato_aluguel.data_inicial_cobranca\', \'contrato_aluguel.valor\', \'contrato_aluguel.valor_ext\', \'contrato_aluguel.local_contrato\', \'contrato_aluguel.data_contrato\'])'
p286
sg87
S'_select_aux'
p287
sa(dp288
g64
S'/home/rogoberto/web2py/gluon/packages/dal/pydal/adapters/base.py'
p289
sg66
(dp290
S'self'
p291
S'<pydal.adapters.sqlite.SQLite object>'
p292
sS'self.execute'
p293
S'<bound method SQLite.wrap of <pydal.adapters.sqlite.SQLite object>>'
p294
sS'sql'
p295
S'\'SELECT "contrato_aluguel"."id", "contrato_alugue... ("contrato_aluguel"."id" = 40) LIMIT 1 OFFSET 0;\''
p296
ssg72
I713
sg73
(dp297
I708
S''
sI709
S'    def nested_select(self, query, fields, attributes):'
p298
sI710
S'        return Select(self.db, query, fields, attributes)'
p299
sI711
S''
sI712
S'    def _select_aux_execute(self, sql):'
p300
sI713
S'        self.execute(sql)'
p301
sI714
S'        return self.cursor.fetchall()'
p302
sI715
S''
sI716
S'    def _select_aux(self, sql, fields, attributes, colnames):'
p303
sI717
S"        cache = attributes.get('cache', None)"
p304
ssg85
S'(self=<pydal.adapters.sqlite.SQLite object>, sql=\'SELECT "contrato_aluguel"."id", "contrato_alugue... ("contrato_aluguel"."id" = 40) LIMIT 1 OFFSET 0;\')'
p305
sg87
S'_select_aux_execute'
p306
sa(dp307
g64
S'/home/rogoberto/web2py/gluon/packages/dal/pydal/adapters/__init__.py'
p308
sg66
(dp309
S'kwargs'
p310
g19
sS'args'
p311
S'(<pydal.adapters.sqlite.SQLite object>, \'SELECT "contrato_aluguel"."id", "contrato_alugue... ("contrato_aluguel"."id" = 40) LIMIT 1 OFFSET 0;\')'
p312
sS'f'
S'<function execute>'
p313
ssg72
I67
sg73
(dp314
I64
S'            if len(args) > 1:'
p315
sI65
S'                raise ValueError(args[1])'
p316
sI66
S"            raise RuntimeError('no connection available')"
p317
sI67
S'        return f(*args, **kwargs)'
p318
sI68
S'    return wrap'
p319
sI69
S''
sI70
S''
sI71
S'from .base import SQLAdapter, NoSQLAdapter'
p320
sI62
S'    def wrap(*args, **kwargs):'
p321
sI63
S'        if not args[0].connection:'
p322
ssg85
S'(*args=(<pydal.adapters.sqlite.SQLite object>, \'SELECT "contrato_aluguel"."id", "contrato_alugue... ("contrato_aluguel"."id" = 40) LIMIT 1 OFFSET 0;\'), **kwargs={})'
p323
sg87
S'wrap'
p324
sa(dp325
g64
S'/home/rogoberto/web2py/gluon/packages/dal/pydal/adapters/base.py'
p326
sg66
(dp327
S'rv'
p328
g108
sS'self'
p329
S'<pydal.adapters.sqlite.SQLite object>'
p330
sS'args'
p331
S'(\'SELECT "contrato_aluguel"."id", "contrato_alugue... ("contrato_aluguel"."id" = 40) LIMIT 1 OFFSET 0;\',)'
p332
sS'self.cursor'
p333
S'<sqlite3.Cursor object>'
p334
sS'command'
p335
S'\'SELECT "contrato_aluguel"."id", "contrato_alugue... ("contrato_aluguel"."id" = 40) LIMIT 1 OFFSET 0;\''
p336
sS'self.cursor.execute'
p337
S'<built-in method execute of sqlite3.Cursor object>'
p338
sS'kwargs'
p339
g19
ssg72
I413
sg73
(dp340
I416
S'        return rv'
p341
sI417
S''
sI408
S'    def execute(self, *args, **kwargs):'
p342
sI409
S'        command = self.filter_sql_command(args[0])'
p343
sI410
S'        handlers = self._build_handlers_for_execution()'
p344
sI411
S'        for handler in handlers:'
p345
sI412
S'            handler.before_execute(command)'
p346
sI413
S'        rv = self.cursor.execute(command, *args[1:], **kwargs)'
p347
sI414
S'        for handler in handlers:'
p348
sI415
S'            handler.after_execute(command)'
p349
ssg85
S'(self=<pydal.adapters.sqlite.SQLite object>, *args=(\'SELECT "contrato_aluguel"."id", "contrato_alugue... ("contrato_aluguel"."id" = 40) LIMIT 1 OFFSET 0;\',), **kwargs={})'
p350
sg87
S'execute'
p351
sa(dp352
g64
S'/usr/lib/python2.7/sqlite3/dbapi2.py'
p353
sg66
(dp354
S'datetime.date'
p355
S"<type 'datetime.date'>"
p356
sS'val'
p357
S'"<Row {\'tipo_pagamento\': \'DINHEIRO\', \'quitado\': F... 66L, \'juros\': 0.0, \'valor\': 500.0, \'id\': 1375L}>"'
p358
sS'global datetime'
p359
S"<module 'datetime' (built-in)>"
p360
sS'val.split'
p361
S'<built-in method split of str object>'
p362
sS'builtinint'
p363
S"<type 'int'>"
p364
sS'builtinmap'
p365
S'<built-in function map>'
p366
ssg72
I65
sg73
(dp367
I64
S'    def convert_date(val):'
p368
sI65
S'        return datetime.date(*map(int, val.split("-")))'
p369
sI66
S''
sI67
S'    def convert_timestamp(val):'
p370
sI68
S'        datepart, timepart = val.split(" ")'
p371
sI69
S'        year, month, day = map(int, datepart.split("-"))'
p372
sI60
S''
sI61
S'    def adapt_datetime(val):'
p373
sI62
S'        return val.isoformat(" ")'
p374
sI63
S''
ssg85
S'(val="<Row {\'tipo_pagamento\': \'DINHEIRO\', \'quitado\': F... 66L, \'juros\': 0.0, \'valor\': 500.0, \'id\': 1375L}>")'
p375
sg87
S'convert_date'
p376
sasS'pyver'
p377
S'Python 2.7.12: /usr/local/bin/uwsgi (prefix: /usr)'
p378
sS'session'
p379
g59
(S's\x15\n\x00\x00<div><table><tr><td style="font-weight:bold;vertical-align:top;">auth</td><td style="vertical-align:top;">:</td><td><div><table><tr><td style="font-weight:bold;vertical-align:top;">expiration</td><td style="vertical-align:top;">:</td><td><div>3600</div></td></tr><tr><td style="font-weight:bold;vertical-align:top;">hmac_key</td><td style="vertical-align:top;">:</td><td><div>f62041e1-19db-4d16-9b46-aa9c0bae35c3</div></td></tr><tr><td style="font-weight:bold;vertical-align:top;">last_visit</td><td style="vertical-align:top;">:</td><td><div>datetime.datetime(2020, 7, 11, 18, 50, 52, 166842)</div></td></tr><tr><td style="font-weight:bold;vertical-align:top;">remember_me</td><td style="vertical-align:top;">:</td><td><div>False</div></td></tr><tr><td style="font-weight:bold;vertical-align:top;">user</td><td style="vertical-align:top;">:</td><td><div><table><tr><td style="font-weight:bold;vertical-align:top;">email</td><td style="vertical-align:top;">:</td><td><div>usbetin@gmail.com</div></td></tr><tr><td style="font-weight:bold;vertical-align:top;">first_name</td><td style="vertical-align:top;">:</td><td><div>Rogoberto</div></td></tr><tr><td style="font-weight:bold;vertical-align:top;">id</td><td style="vertical-align:top;">:</td><td><div>1L</div></td></tr><tr><td style="font-weight:bold;vertical-align:top;">last_name</td><td style="vertical-align:top;">:</td><td><div>Ribeiro</div></td></tr><tr><td style="font-weight:bold;vertical-align:top;">registration_id</td><td style="vertical-align:top;">:</td><td><div></div></td></tr><tr><td style="font-weight:bold;vertical-align:top;">registration_key</td><td style="vertical-align:top;">:</td><td><div></div></td></tr><tr><td style="font-weight:bold;vertical-align:top;">reset_password_key</td><td style="vertical-align:top;">:</td><td><div></div></td></tr></table></div></td></tr><tr><td style="font-weight:bold;vertical-align:top;">user_groups</td><td style="vertical-align:top;">:</td><td><div><table><tr><td style="font-weight:bold;vertical-align:top;">1</td><td style="vertical-align:top;">:</td><td><div>user_1</div></td></tr></table></div></td></tr></table></div></td></tr><tr><td style="font-weight:bold;vertical-align:top;">flash</td><td style="vertical-align:top;">:</td><td><div>None</div></td></tr><tr><td style="font-weight:bold;vertical-align:top;">last_orderby</td><td style="vertical-align:top;">:</td><td><div>None</div></td></tr><tr><td style="font-weight:bold;vertical-align:top;">last_query</td><td style="vertical-align:top;">:</td><td><div>db.contrato_aluguel.id&gt;0</div></td></tr></table></div>'
tRp380
sS'etype'
p381
S"<type 'exceptions.ValueError'>"
p382
sS'date'
p383
S'Sat Jul 11 18:51:16 2020'
p384
sS'response'
p385
g59
(S'st)\x00\x00<div><table><tr><td style="font-weight:bold;vertical-align:top;">body</td><td style="vertical-align:top;">:</td><td><div>&lt;cStringIO.StringO object at 0x7fcc25539e30&gt;</div></td></tr><tr><td style="font-weight:bold;vertical-align:top;">cookies</td><td style="vertical-align:top;">:</td><td><div><table><tr><td style="font-weight:bold;vertical-align:top;">session_id_localfs</td><td style="vertical-align:top;">:</td><td><div>177.37.224.245-a00a2afa-2780-4458-8a30-67cd31b759a3<table><tr><td style="font-weight:bold;vertical-align:top;">comment</td><td style="vertical-align:top;">:</td><td><div></div></td></tr><tr><td style="font-weight:bold;vertical-align:top;">domain</td><td style="vertical-align:top;">:</td><td><div></div></td></tr><tr><td style="font-weight:bold;vertical-align:top;">expires</td><td style="vertical-align:top;">:</td><td><div></div></td></tr><tr><td style="font-weight:bold;vertical-align:top;">httponly</td><td style="vertical-align:top;">:</td><td><div></div></td></tr><tr><td style="font-weight:bold;vertical-align:top;">max-age</td><td style="vertical-align:top;">:</td><td><div></div></td></tr><tr><td style="font-weight:bold;vertical-align:top;">path</td><td style="vertical-align:top;">:</td><td><div>/</div></td></tr><tr><td style="font-weight:bold;vertical-align:top;">secure</td><td style="vertical-align:top;">:</td><td><div></div></td></tr><tr><td style="font-weight:bold;vertical-align:top;">version</td><td style="vertical-align:top;">:</td><td><div></div></td></tr></table></div></td></tr></table></div></td></tr><tr><td style="font-weight:bold;vertical-align:top;">delimiters</td><td style="vertical-align:top;">:</td><td><div><table><tr><td><div>{{</div></td></tr><tr><td><div>}}</div></td></tr></table></div></td></tr><tr><td style="font-weight:bold;vertical-align:top;">files</td><td style="vertical-align:top;">:</td><td><div><table></table></div></td></tr><tr><td style="font-weight:bold;vertical-align:top;">flash</td><td style="vertical-align:top;">:</td><td><div></div></td></tr><tr><td style="font-weight:bold;vertical-align:top;">form_label_separator</td><td style="vertical-align:top;">:</td><td><div></div></td></tr><tr><td style="font-weight:bold;vertical-align:top;">formstyle</td><td style="vertical-align:top;">:</td><td><div>bootstrap4_inline</div></td></tr><tr><td style="font-weight:bold;vertical-align:top;">generic_patterns</td><td style="vertical-align:top;">:</td><td><div><table></table></div></td></tr><tr><td style="font-weight:bold;vertical-align:top;">google_analytics_id</td><td style="vertical-align:top;">:</td><td><div>None</div></td></tr><tr><td style="font-weight:bold;vertical-align:top;">headers</td><td style="vertical-align:top;">:</td><td><div><table><tr><td style="font-weight:bold;vertical-align:top;">X-Powered-By</td><td style="vertical-align:top;">:</td><td><div>web2py</div></td></tr></table></div></td></tr><tr><td style="font-weight:bold;vertical-align:top;">menu</td><td style="vertical-align:top;">:</td><td><div><table><tr><td><div><table><tr><td><div>Principal</div></td></tr><tr><td><div>False</div></td></tr><tr><td><div>/localfs/default/index</div></td></tr><tr><td><div><table></table></div></td></tr></table></div></td></tr><tr><td><div><table><tr><td><div>Cadastro</div></td></tr><tr><td><div>False</div></td></tr><tr><td><div>None</div></td></tr><tr><td><div><table><tr><td><div><table><tr><td><div>Pessoa</div></td></tr><tr><td><div>False</div></td></tr><tr><td><div>/localfs/pessoa/cadastro_pessoa</div></td></tr><tr><td><div>[]</div></td></tr></table></div></td></tr><tr><td><div><table><tr><td><div>Imovel</div></td></tr><tr><td><div>False</div></td></tr><tr><td><div>/localfs/imovel/cadastro_imovel</div></td></tr><tr><td><div>[]</div></td></tr></table></div></td></tr></table></div></td></tr></table></div></td></tr><tr><td><div><table><tr><td><div>Consulta</div></td></tr><tr><td><div>False</div></td></tr><tr><td><div>None</div></td></tr><tr><td><div><table><tr><td><div><table><tr><td><div>Pessoa</div></td></tr><tr><td><div>False</div></td></tr><tr><td><div>/localfs/pessoa/acesso</div></td></tr><tr><td><div>[]</div></td></tr></table></div></td></tr><tr><td><div><table><tr><td><div>Imovel</div></td></tr><tr><td><div>False</div></td></tr><tr><td><div>/localfs/imovel/acesso</div></td></tr><tr><td><div>[]</div></td></tr></table></div></td></tr></table></div></td></tr></table></div></td></tr><tr><td><div><table><tr><td><div>Lembrete</div></td></tr><tr><td><div>False</div></td></tr><tr><td><div>#</div></td></tr><tr><td><div><table><tr><td><div><table><tr><td><div>Imoveis disponiveis</div></td></tr><tr><td><div>False</div></td></tr><tr><td><div>/localfs/contrato/#</div></td></tr><tr><td><div>[]</div></td></tr></table></div></td></tr><tr><td><div><table><tr><td><div>Imoveis indisponiveis</div></td></tr><tr><td><div>False</div></td></tr><tr><td><div>/localfs/contrato/#</div></td></tr><tr><td><div>[]</div></td></tr></table></div></td></tr><tr><td><div><table><tr><td><div>Recebimentos em debito</div></td></tr><tr><td><div>False</div></td></tr><tr><td><div>/localfs/contrato/#</div></td></tr><tr><td><div>[]</div></td></tr></table></div></td></tr><tr><td><div><table><tr><td><div>Recebimentos quitados</div></td></tr><tr><td><div>False</div></td></tr><tr><td><div>/localfs/contrato/#</div></td></tr><tr><td><div>[]</div></td></tr></table></div></td></tr><tr><td><div><table><tr><td><div>Despesas empresarias</div></td></tr><tr><td><div>False</div></td></tr><tr><td><div>/localfs/contrato/#</div></td></tr><tr><td><div>[]</div></td></tr></table></div></td></tr><tr><td><div><table><tr><td><div>Despesas por imovel</div></td></tr><tr><td><div>False</div></td></tr><tr><td><div>/localfs/contrato/#</div></td></tr><tr><td><div>[]</div></td></tr></table></div></td></tr><tr><td><div><table><tr><td><div>Contratos vencidos</div></td></tr><tr><td><div>False</div></td></tr><tr><td><div>/localfs/contrato/#</div></td></tr><tr><td><div>[]</div></td></tr></table></div></td></tr><tr><td><div><table><tr><td><div>Recebimentos</div></td></tr><tr><td><div>False</div></td></tr><tr><td><div>/localfs/contrato/#</div></td></tr><tr><td><div>[]</div></td></tr></table></div></td></tr><tr><td><div><table><tr><td><div>Gastos e despesas</div></td></tr><tr><td><div>False</div></td></tr><tr><td><div>/localfs/contrato/#</div></td></tr><tr><td><div>[]</div></td></tr></table></div></td></tr><tr><td><div><table><tr><td><div>Contratos novos</div></td></tr><tr><td><div>False</div></td></tr><tr><td><div>/localfs/contrato/#</div></td></tr><tr><td><div>[]</div></td></tr></table></div></td></tr></table></div></td></tr></table></div></td></tr></table></div></td></tr><tr><td style="font-weight:bold;vertical-align:top;">meta</td><td style="vertical-align:top;">:</td><td><div><table><tr><td style="font-weight:bold;vertical-align:top;">author</td><td style="vertical-align:top;">:</td><td><div>Your Name &lt;you@example.com&gt;</div></td></tr><tr><td style="font-weight:bold;vertical-align:top;">description</td><td style="vertical-align:top;">:</td><td><div>a cool new app</div></td></tr><tr><td style="font-weight:bold;vertical-align:top;">generator</td><td style="vertical-align:top;">:</td><td><div>Web2py Web Framework</div></td></tr><tr><td style="font-weight:bold;vertical-align:top;">keywords</td><td style="vertical-align:top;">:</td><td><div><table><tr><td><div>web2py</div></td></tr><tr><td><div>python</div></td></tr><tr><td><div>framework</div></td></tr></table></div></td></tr></table></div></td></tr><tr><td style="font-weight:bold;vertical-align:top;">models_to_run</td><td style="vertical-align:top;">:</td><td><div><table><tr><td><div>^\\w+\\.py$</div></td></tr><tr><td><div>^contrato/\\w+\\.py$</div></td></tr><tr><td><div>^contrato/alterar_contrato/\\w+\\.py$</div></td></tr></table></div></td></tr><tr><td style="font-weight:bold;vertical-align:top;">postprocessing</td><td style="vertical-align:top;">:</td><td><div><table></table></div></td></tr><tr><td style="font-weight:bold;vertical-align:top;">session_client</td><td style="vertical-align:top;">:</td><td><div>177.37.224.245</div></td></tr><tr><td style="font-weight:bold;vertical-align:top;">session_cookie_compression_level</td><td style="vertical-align:top;">:</td><td><div>None</div></td></tr><tr><td style="font-weight:bold;vertical-align:top;">session_cookie_expires</td><td style="vertical-align:top;">:</td><td><div>None</div></td></tr><tr><td style="font-weight:bold;vertical-align:top;">session_data_name</td><td style="vertical-align:top;">:</td><td><div>session_data_localfs</div></td></tr><tr><td style="font-weight:bold;vertical-align:top;">session_file</td><td style="vertical-align:top;">:</td><td><div>&lt;open file &#x27;/home/rogoberto/web2py/applications/localfs/sessions/02e/1c6/177.37.224.245-a00a2afa-2780-4458-8a30-67cd31b759a3&#x27;, mode &#x27;rb+&#x27; at 0x7fcc25153f60&gt;</div></td></tr><tr><td style="font-weight:bold;vertical-align:top;">session_filename</td><td style="vertical-align:top;">:</td><td><div>/home/rogoberto/web2py/applications/localfs/sessions/177.37.224.245-a00a2afa-2780-4458-8a30-67cd31b759a3</div></td></tr><tr><td style="font-weight:bold;vertical-align:top;">session_hash</td><td style="vertical-align:top;">:</td><td><div>c8570b58301ba5a5c58bcd4d046eabab</div></td></tr><tr><td style="font-weight:bold;vertical-align:top;">session_id</td><td style="vertical-align:top;">:</td><td><div>177.37.224.245-a00a2afa-2780-4458-8a30-67cd31b759a3</div></td></tr><tr><td style="font-weight:bold;vertical-align:top;">session_id_name</td><td style="vertical-align:top;">:</td><td><div>session_id_localfs</div></td></tr><tr><td style="font-weight:bold;vertical-align:top;">session_locked</td><td style="vertical-align:top;">:</td><td><div>True</div></td></tr><tr><td style="font-weight:bold;vertical-align:top;">session_masterapp</td><td style="vertical-align:top;">:</td><td><div>localfs</div></td></tr><tr><td style="font-weight:bold;vertical-align:top;">session_new</td><td style="vertical-align:top;">:</td><td><div>False</div></td></tr><tr><td style="font-weight:bold;vertical-align:top;">session_storage_type</td><td style="vertical-align:top;">:</td><td><div>file</div></td></tr><tr><td style="font-weight:bold;vertical-align:top;">show_toolbar</td><td style="vertical-align:top;">:</td><td><div>False</div></td></tr><tr><td style="font-weight:bold;vertical-align:top;">status</td><td style="vertical-align:top;">:</td><td><div>200</div></td></tr><tr><td style="font-weight:bold;vertical-align:top;">view</td><td style="vertical-align:top;">:</td><td><div>generic.html</div></td></tr></table></div>'
tRp386
sS'locals'
p387
(dp388
S'val'
p389
S'"<Row {\'tipo_pagamento\': \'DINHEIRO\', \'quitado\': F... 66L, \'juros\': 0.0, \'valor\': 500.0, \'id\': 1375L}>"'
p390
sssS'traceback'
p391
S'Traceback (most recent call last):\n  File "/home/rogoberto/web2py/gluon/restricted.py", line 219, in restricted\n    exec(ccode, environment)\n  File "/home/rogoberto/web2py/applications/localfs/controllers/contrato.py", line 208, in <module>\n  File "/home/rogoberto/web2py/gluon/globals.py", line 421, in <lambda>\n    self._caller = lambda f: f()\n  File "/home/rogoberto/web2py/gluon/tools.py", line 3862, in f\n    return action(*a, **b)\n  File "/home/rogoberto/web2py/applications/localfs/controllers/contrato.py", line 83, in alterar_contrato\n    contrato_aluguel=db.contrato_aluguel(request.args(0, cast=int))\n  File "/home/rogoberto/web2py/gluon/packages/dal/pydal/objects.py", line 586, in __call__\n    orderby_on_limitby=False).first()\n  File "/home/rogoberto/web2py/gluon/packages/dal/pydal/objects.py", line 2277, in select\n    return adapter.select(self.query, fields, attributes)\n  File "/home/rogoberto/web2py/gluon/packages/dal/pydal/adapters/sqlite.py", line 82, in select\n    return super(SQLite, self).select(query, fields, attributes)\n  File "/home/rogoberto/web2py/gluon/packages/dal/pydal/adapters/base.py", line 763, in select\n    return self._select_aux(sql, fields, attributes, colnames)\n  File "/home/rogoberto/web2py/gluon/packages/dal/pydal/adapters/base.py", line 719, in _select_aux\n    rows = self._select_aux_execute(sql)\n  File "/home/rogoberto/web2py/gluon/packages/dal/pydal/adapters/base.py", line 713, in _select_aux_execute\n    self.execute(sql)\n  File "/home/rogoberto/web2py/gluon/packages/dal/pydal/adapters/__init__.py", line 67, in wrap\n    return f(*args, **kwargs)\n  File "/home/rogoberto/web2py/gluon/packages/dal/pydal/adapters/base.py", line 413, in execute\n    rv = self.cursor.execute(command, *args[1:], **kwargs)\n  File "/usr/lib/python2.7/sqlite3/dbapi2.py", line 65, in convert_date\n    return datetime.date(*map(int, val.split("-")))\nValueError: invalid literal for int() with base 10: "<Row {\'tipo_pagamento\': \'DINHEIRO\', \'quitado\': False, \'data_pagamento\': datetime.date(2020, 5, 30), \'contrato_aluguel\': 40L, \'data_vencimento\': datetime.date(2020, 5, 30), \'imovel\': 66L, \'juros\': 0.0,"\n'
p392
s.